
smartnic_rtos.elf:     file format elf64-littleriscv


Disassembly of section .text.init:

0000000080000000 <_start>:

.section .text.init
.globl _start
_start:
    /* 栈指针 → RAM 顶部 */
    lla sp, _stack_top
    80000000:	10000117          	auipc	sp,0x10000
    80000004:	00010113          	mv	sp,sp

    /* 清除 BSS */
    lla t0, _bss_start
    80000008:	00007297          	auipc	t0,0x7
    8000000c:	86828293          	addi	t0,t0,-1944 # 80006870 <xSuspendedTaskList>
    lla t1, _bss_end
    80000010:	00018317          	auipc	t1,0x18
    80000014:	bd430313          	addi	t1,t1,-1068 # 80017be4 <_bss_end>
    bgeu t0, t1, 1f
    80000018:	0062f763          	bgeu	t0,t1,80000026 <_start+0x26>
0:
    sw zero, 0(t0)
    8000001c:	0002a023          	sw	zero,0(t0)
    addi t0, t0, 4
    80000020:	0291                	addi	t0,t0,4
    bltu t0, t1, 0b
    80000022:	fe62ede3          	bltu	t0,t1,8000001c <_start+0x1c>
1:
    /* 设置陷阱向量 → FreeRTOS 陷阱处理程序 */
    lla t0, freertos_risc_v_trap_handler
    80000026:	00000297          	auipc	t0,0x0
    8000002a:	0da28293          	addi	t0,t0,218 # 80000100 <freertos_risc_v_trap_handler>
    csrw mtvec, t0
    8000002e:	30529073          	csrw	mtvec,t0

    /* 使能机器模式定时器中断 (MTI) + 外部中断 (MEI) */
    li t0, 0x880   /* MIE[7]=MTIE, MIE[11]=MEIE = 0x880 */
    80000032:	6285                	lui	t0,0x1
    80000034:	8802829b          	addiw	t0,t0,-1920 # 880 <_start-0x7ffff780>
    csrw mie, t0
    80000038:	30429073          	csrw	mie,t0

    /* 跳转到 main */
    jal main
    8000003c:	557050ef          	jal	ra,80005d92 <main>

    /* main 不应返回 */
2:
    wfi
    80000040:	10500073          	wfi
    j 2b
    80000044:	bff5                	j	80000040 <_start+0x40>

Disassembly of section .text.freertos_risc_v_trap_handler:

0000000080000100 <freertos_risc_v_trap_handler>:
/*-----------------------------------------------------------*/

.section .text.freertos_risc_v_trap_handler
.align 8
freertos_risc_v_trap_handler:
    portcontextSAVE_CONTEXT_INTERNAL
    80000100:	f0810113          	addi	sp,sp,-248 # 8fffff08 <_heap_end+0xff08>
    80000104:	e806                	sd	ra,16(sp)
    80000106:	ec16                	sd	t0,24(sp)
    80000108:	f01a                	sd	t1,32(sp)
    8000010a:	f41e                	sd	t2,40(sp)
    8000010c:	f822                	sd	s0,48(sp)
    8000010e:	fc26                	sd	s1,56(sp)
    80000110:	e0aa                	sd	a0,64(sp)
    80000112:	e4ae                	sd	a1,72(sp)
    80000114:	e8b2                	sd	a2,80(sp)
    80000116:	ecb6                	sd	a3,88(sp)
    80000118:	f0ba                	sd	a4,96(sp)
    8000011a:	f4be                	sd	a5,104(sp)
    8000011c:	f8c2                	sd	a6,112(sp)
    8000011e:	fcc6                	sd	a7,120(sp)
    80000120:	e14a                	sd	s2,128(sp)
    80000122:	e54e                	sd	s3,136(sp)
    80000124:	e952                	sd	s4,144(sp)
    80000126:	ed56                	sd	s5,152(sp)
    80000128:	f15a                	sd	s6,160(sp)
    8000012a:	f55e                	sd	s7,168(sp)
    8000012c:	f962                	sd	s8,176(sp)
    8000012e:	fd66                	sd	s9,184(sp)
    80000130:	e1ea                	sd	s10,192(sp)
    80000132:	e5ee                	sd	s11,200(sp)
    80000134:	e9f2                	sd	t3,208(sp)
    80000136:	edf6                	sd	t4,216(sp)
    80000138:	f1fa                	sd	t5,224(sp)
    8000013a:	f5fe                	sd	t6,232(sp)
    8000013c:	00006297          	auipc	t0,0x6
    80000140:	7242b283          	ld	t0,1828(t0) # 80006860 <xCriticalNesting>
    80000144:	f996                	sd	t0,240(sp)
    80000146:	300022f3          	csrr	t0,mstatus
    8000014a:	e416                	sd	t0,8(sp)
    8000014c:	00018297          	auipc	t0,0x18
    80000150:	a042b283          	ld	t0,-1532(t0) # 80017b50 <pxCurrentTCB>
    80000154:	0022b023          	sd	sp,0(t0)

    csrr a0, mcause
    80000158:	34202573          	csrr	a0,mcause
    csrr a1, mepc
    8000015c:	341025f3          	csrr	a1,mepc

    bge a0, x0, synchronous_exception
    80000160:	00055863          	bgez	a0,80000170 <synchronous_exception>

0000000080000164 <asynchronous_interrupt>:

asynchronous_interrupt:
    store_x a1, 0( sp )                 /* Asynchronous interrupt so save unmodified exception return address. */
    80000164:	e02e                	sd	a1,0(sp)
    load_x sp, xISRStackTop             /* Switch to ISR stack. */
    80000166:	00006117          	auipc	sp,0x6
    8000016a:	6ba13103          	ld	sp,1722(sp) # 80006820 <xISRStackTop>
    j handle_interrupt
    8000016e:	a801                	j	8000017e <handle_interrupt>

0000000080000170 <synchronous_exception>:

synchronous_exception:
    addi a1, a1, 4                      /* Synchronous so update exception return address to the instruction after the instruction that generated the exeption. */
    80000170:	0591                	addi	a1,a1,4
    store_x a1, 0( sp )                 /* Save updated exception return address. */
    80000172:	e02e                	sd	a1,0(sp)
    load_x sp, xISRStackTop             /* Switch to ISR stack. */
    80000174:	00006117          	auipc	sp,0x6
    80000178:	6ac13103          	ld	sp,1708(sp) # 80006820 <xISRStackTop>
    j handle_exception
    8000017c:	a891                	j	800001d0 <handle_exception>

000000008000017e <handle_interrupt>:

handle_interrupt:
#if( portasmHAS_MTIME != 0 )

    test_if_mtimer:                     /* If there is a CLINT then the mtimer is used to generate the tick interrupt. */
        addi t0, x0, 1
    8000017e:	4285                	li	t0,1
        slli t0, t0, __riscv_xlen - 1   /* LSB is already set, shift into MSB.  Shift 31 on 32-bit or 63 on 64-bit cores. */
    80000180:	12fe                	slli	t0,t0,0x3f
        addi t1, t0, 7                  /* 0x8000[]0007 == machine timer interrupt. */
    80000182:	00728313          	addi	t1,t0,7
        bne a0, t1, application_interrupt_handler
    80000186:	04651063          	bne	a0,t1,800001c6 <application_interrupt_handler>

        portUPDATE_MTIMER_COMPARE_REGISTER
    8000018a:	00018517          	auipc	a0,0x18
    8000018e:	a2653503          	ld	a0,-1498(a0) # 80017bb0 <pullMachineTimerCompareRegister>
    80000192:	00006597          	auipc	a1,0x6
    80000196:	6d65b583          	ld	a1,1750(a1) # 80006868 <pullNextTime>
    8000019a:	0005b383          	ld	t2,0(a1)
    8000019e:	00753023          	sd	t2,0(a0)
    800001a2:	00006297          	auipc	t0,0x6
    800001a6:	6762b283          	ld	t0,1654(t0) # 80006818 <uxTimerIncrementsForOneTick>
    800001aa:	00728eb3          	add	t4,t0,t2
    800001ae:	01d5b023          	sd	t4,0(a1)
        call xTaskIncrementTick
    800001b2:	00001097          	auipc	ra,0x1
    800001b6:	41e080e7          	jalr	1054(ra) # 800015d0 <xTaskIncrementTick>
        beqz a0, processed_source       /* Don't switch context if incrementing tick didn't unblock a task. */
    800001ba:	c905                	beqz	a0,800001ea <processed_source>
        call vTaskSwitchContext
    800001bc:	00001097          	auipc	ra,0x1
    800001c0:	438080e7          	jalr	1080(ra) # 800015f4 <vTaskSwitchContext>
        j processed_source
    800001c4:	a01d                	j	800001ea <processed_source>

00000000800001c6 <application_interrupt_handler>:

#endif /* portasmHAS_MTIME */

application_interrupt_handler:
    call freertos_risc_v_application_interrupt_handler
    800001c6:	00005097          	auipc	ra,0x5
    800001ca:	592080e7          	jalr	1426(ra) # 80005758 <freertos_risc_v_application_interrupt_handler>
    j processed_source
    800001ce:	a831                	j	800001ea <processed_source>

00000000800001d0 <handle_exception>:

handle_exception:
    /* a0 contains mcause. */
    li t0, 11                                   /* 11 == environment call. */
    800001d0:	42ad                	li	t0,11
    bne a0, t0, application_exception_handler   /* Not an M environment call, so some other exception. */
    800001d2:	00551763          	bne	a0,t0,800001e0 <application_exception_handler>
    call vTaskSwitchContext
    800001d6:	00001097          	auipc	ra,0x1
    800001da:	41e080e7          	jalr	1054(ra) # 800015f4 <vTaskSwitchContext>
    j processed_source
    800001de:	a031                	j	800001ea <processed_source>

00000000800001e0 <application_exception_handler>:

application_exception_handler:
    call freertos_risc_v_application_exception_handler
    800001e0:	00005097          	auipc	ra,0x5
    800001e4:	c96080e7          	jalr	-874(ra) # 80004e76 <freertos_risc_v_application_exception_handler>
    j processed_source                  /* No other exceptions handled yet. */
    800001e8:	a009                	j	800001ea <processed_source>

00000000800001ea <processed_source>:

processed_source:
    portcontextRESTORE_CONTEXT
    800001ea:	00018317          	auipc	t1,0x18
    800001ee:	96633303          	ld	t1,-1690(t1) # 80017b50 <pxCurrentTCB>
    800001f2:	00033103          	ld	sp,0(t1)
    800001f6:	6282                	ld	t0,0(sp)
    800001f8:	34129073          	csrw	mepc,t0
    800001fc:	6e22                	ld	t3,8(sp)
    800001fe:	300e1073          	csrw	mstatus,t3
    80000202:	72ce                	ld	t0,240(sp)
    80000204:	00006317          	auipc	t1,0x6
    80000208:	65433303          	ld	t1,1620(t1) # 80006858 <pxCriticalNesting>
    8000020c:	00533023          	sd	t0,0(t1)
    80000210:	60c2                	ld	ra,16(sp)
    80000212:	62e2                	ld	t0,24(sp)
    80000214:	7302                	ld	t1,32(sp)
    80000216:	73a2                	ld	t2,40(sp)
    80000218:	7442                	ld	s0,48(sp)
    8000021a:	74e2                	ld	s1,56(sp)
    8000021c:	6506                	ld	a0,64(sp)
    8000021e:	65a6                	ld	a1,72(sp)
    80000220:	6646                	ld	a2,80(sp)
    80000222:	66e6                	ld	a3,88(sp)
    80000224:	7706                	ld	a4,96(sp)
    80000226:	77a6                	ld	a5,104(sp)
    80000228:	7846                	ld	a6,112(sp)
    8000022a:	78e6                	ld	a7,120(sp)
    8000022c:	690a                	ld	s2,128(sp)
    8000022e:	69aa                	ld	s3,136(sp)
    80000230:	6a4a                	ld	s4,144(sp)
    80000232:	6aea                	ld	s5,152(sp)
    80000234:	7b0a                	ld	s6,160(sp)
    80000236:	7baa                	ld	s7,168(sp)
    80000238:	7c4a                	ld	s8,176(sp)
    8000023a:	7cea                	ld	s9,184(sp)
    8000023c:	6d0e                	ld	s10,192(sp)
    8000023e:	6dae                	ld	s11,200(sp)
    80000240:	6e4e                	ld	t3,208(sp)
    80000242:	6eee                	ld	t4,216(sp)
    80000244:	7f0e                	ld	t5,224(sp)
    80000246:	7fae                	ld	t6,232(sp)
    80000248:	0f810113          	addi	sp,sp,248
    8000024c:	30200073          	mret
	...

Disassembly of section .text.freertos_risc_v_exception_handler:

0000000080000302 <freertos_risc_v_exception_handler>:
    portcontextSAVE_EXCEPTION_CONTEXT
    80000302:	f0810113          	addi	sp,sp,-248
    80000306:	e806                	sd	ra,16(sp)
    80000308:	ec16                	sd	t0,24(sp)
    8000030a:	f01a                	sd	t1,32(sp)
    8000030c:	f41e                	sd	t2,40(sp)
    8000030e:	f822                	sd	s0,48(sp)
    80000310:	fc26                	sd	s1,56(sp)
    80000312:	e0aa                	sd	a0,64(sp)
    80000314:	e4ae                	sd	a1,72(sp)
    80000316:	e8b2                	sd	a2,80(sp)
    80000318:	ecb6                	sd	a3,88(sp)
    8000031a:	f0ba                	sd	a4,96(sp)
    8000031c:	f4be                	sd	a5,104(sp)
    8000031e:	f8c2                	sd	a6,112(sp)
    80000320:	fcc6                	sd	a7,120(sp)
    80000322:	e14a                	sd	s2,128(sp)
    80000324:	e54e                	sd	s3,136(sp)
    80000326:	e952                	sd	s4,144(sp)
    80000328:	ed56                	sd	s5,152(sp)
    8000032a:	f15a                	sd	s6,160(sp)
    8000032c:	f55e                	sd	s7,168(sp)
    8000032e:	f962                	sd	s8,176(sp)
    80000330:	fd66                	sd	s9,184(sp)
    80000332:	e1ea                	sd	s10,192(sp)
    80000334:	e5ee                	sd	s11,200(sp)
    80000336:	e9f2                	sd	t3,208(sp)
    80000338:	edf6                	sd	t4,216(sp)
    8000033a:	f1fa                	sd	t5,224(sp)
    8000033c:	f5fe                	sd	t6,232(sp)
    8000033e:	00006297          	auipc	t0,0x6
    80000342:	5222b283          	ld	t0,1314(t0) # 80006860 <xCriticalNesting>
    80000346:	f996                	sd	t0,240(sp)
    80000348:	300022f3          	csrr	t0,mstatus
    8000034c:	e416                	sd	t0,8(sp)
    8000034e:	00018297          	auipc	t0,0x18
    80000352:	8022b283          	ld	t0,-2046(t0) # 80017b50 <pxCurrentTCB>
    80000356:	0022b023          	sd	sp,0(t0)
    8000035a:	34202573          	csrr	a0,mcause
    8000035e:	341025f3          	csrr	a1,mepc
    80000362:	0591                	addi	a1,a1,4
    80000364:	e02e                	sd	a1,0(sp)
    80000366:	00006117          	auipc	sp,0x6
    8000036a:	4ba13103          	ld	sp,1210(sp) # 80006820 <xISRStackTop>
    li t0, 11                           /* 11 == environment call. */
    8000036e:	42ad                	li	t0,11
    bne a0, t0, other_exception         /* Not an M environment call, so some other exception. */
    80000370:	06551963          	bne	a0,t0,800003e2 <other_exception>
    call vTaskSwitchContext
    80000374:	00001097          	auipc	ra,0x1
    80000378:	280080e7          	jalr	640(ra) # 800015f4 <vTaskSwitchContext>
    portcontextRESTORE_CONTEXT
    8000037c:	00017317          	auipc	t1,0x17
    80000380:	7d433303          	ld	t1,2004(t1) # 80017b50 <pxCurrentTCB>
    80000384:	00033103          	ld	sp,0(t1)
    80000388:	6282                	ld	t0,0(sp)
    8000038a:	34129073          	csrw	mepc,t0
    8000038e:	6e22                	ld	t3,8(sp)
    80000390:	300e1073          	csrw	mstatus,t3
    80000394:	72ce                	ld	t0,240(sp)
    80000396:	00006317          	auipc	t1,0x6
    8000039a:	4c233303          	ld	t1,1218(t1) # 80006858 <pxCriticalNesting>
    8000039e:	00533023          	sd	t0,0(t1)
    800003a2:	60c2                	ld	ra,16(sp)
    800003a4:	62e2                	ld	t0,24(sp)
    800003a6:	7302                	ld	t1,32(sp)
    800003a8:	73a2                	ld	t2,40(sp)
    800003aa:	7442                	ld	s0,48(sp)
    800003ac:	74e2                	ld	s1,56(sp)
    800003ae:	6506                	ld	a0,64(sp)
    800003b0:	65a6                	ld	a1,72(sp)
    800003b2:	6646                	ld	a2,80(sp)
    800003b4:	66e6                	ld	a3,88(sp)
    800003b6:	7706                	ld	a4,96(sp)
    800003b8:	77a6                	ld	a5,104(sp)
    800003ba:	7846                	ld	a6,112(sp)
    800003bc:	78e6                	ld	a7,120(sp)
    800003be:	690a                	ld	s2,128(sp)
    800003c0:	69aa                	ld	s3,136(sp)
    800003c2:	6a4a                	ld	s4,144(sp)
    800003c4:	6aea                	ld	s5,152(sp)
    800003c6:	7b0a                	ld	s6,160(sp)
    800003c8:	7baa                	ld	s7,168(sp)
    800003ca:	7c4a                	ld	s8,176(sp)
    800003cc:	7cea                	ld	s9,184(sp)
    800003ce:	6d0e                	ld	s10,192(sp)
    800003d0:	6dae                	ld	s11,200(sp)
    800003d2:	6e4e                	ld	t3,208(sp)
    800003d4:	6eee                	ld	t4,216(sp)
    800003d6:	7f0e                	ld	t5,224(sp)
    800003d8:	7fae                	ld	t6,232(sp)
    800003da:	0f810113          	addi	sp,sp,248
    800003de:	30200073          	mret

00000000800003e2 <other_exception>:
    call freertos_risc_v_application_exception_handler
    800003e2:	00005097          	auipc	ra,0x5
    800003e6:	a94080e7          	jalr	-1388(ra) # 80004e76 <freertos_risc_v_application_exception_handler>
    portcontextRESTORE_CONTEXT
    800003ea:	00017317          	auipc	t1,0x17
    800003ee:	76633303          	ld	t1,1894(t1) # 80017b50 <pxCurrentTCB>
    800003f2:	00033103          	ld	sp,0(t1)
    800003f6:	6282                	ld	t0,0(sp)
    800003f8:	34129073          	csrw	mepc,t0
    800003fc:	6e22                	ld	t3,8(sp)
    800003fe:	300e1073          	csrw	mstatus,t3
    80000402:	72ce                	ld	t0,240(sp)
    80000404:	00006317          	auipc	t1,0x6
    80000408:	45433303          	ld	t1,1108(t1) # 80006858 <pxCriticalNesting>
    8000040c:	00533023          	sd	t0,0(t1)
    80000410:	60c2                	ld	ra,16(sp)
    80000412:	62e2                	ld	t0,24(sp)
    80000414:	7302                	ld	t1,32(sp)
    80000416:	73a2                	ld	t2,40(sp)
    80000418:	7442                	ld	s0,48(sp)
    8000041a:	74e2                	ld	s1,56(sp)
    8000041c:	6506                	ld	a0,64(sp)
    8000041e:	65a6                	ld	a1,72(sp)
    80000420:	6646                	ld	a2,80(sp)
    80000422:	66e6                	ld	a3,88(sp)
    80000424:	7706                	ld	a4,96(sp)
    80000426:	77a6                	ld	a5,104(sp)
    80000428:	7846                	ld	a6,112(sp)
    8000042a:	78e6                	ld	a7,120(sp)
    8000042c:	690a                	ld	s2,128(sp)
    8000042e:	69aa                	ld	s3,136(sp)
    80000430:	6a4a                	ld	s4,144(sp)
    80000432:	6aea                	ld	s5,152(sp)
    80000434:	7b0a                	ld	s6,160(sp)
    80000436:	7baa                	ld	s7,168(sp)
    80000438:	7c4a                	ld	s8,176(sp)
    8000043a:	7cea                	ld	s9,184(sp)
    8000043c:	6d0e                	ld	s10,192(sp)
    8000043e:	6dae                	ld	s11,200(sp)
    80000440:	6e4e                	ld	t3,208(sp)
    80000442:	6eee                	ld	t4,216(sp)
    80000444:	7f0e                	ld	t5,224(sp)
    80000446:	7fae                	ld	t6,232(sp)
    80000448:	0f810113          	addi	sp,sp,248
    8000044c:	30200073          	mret

Disassembly of section .text.freertos_risc_v_interrupt_handler:

0000000080000450 <freertos_risc_v_interrupt_handler>:
    portcontextSAVE_INTERRUPT_CONTEXT
    80000450:	f0810113          	addi	sp,sp,-248
    80000454:	e806                	sd	ra,16(sp)
    80000456:	ec16                	sd	t0,24(sp)
    80000458:	f01a                	sd	t1,32(sp)
    8000045a:	f41e                	sd	t2,40(sp)
    8000045c:	f822                	sd	s0,48(sp)
    8000045e:	fc26                	sd	s1,56(sp)
    80000460:	e0aa                	sd	a0,64(sp)
    80000462:	e4ae                	sd	a1,72(sp)
    80000464:	e8b2                	sd	a2,80(sp)
    80000466:	ecb6                	sd	a3,88(sp)
    80000468:	f0ba                	sd	a4,96(sp)
    8000046a:	f4be                	sd	a5,104(sp)
    8000046c:	f8c2                	sd	a6,112(sp)
    8000046e:	fcc6                	sd	a7,120(sp)
    80000470:	e14a                	sd	s2,128(sp)
    80000472:	e54e                	sd	s3,136(sp)
    80000474:	e952                	sd	s4,144(sp)
    80000476:	ed56                	sd	s5,152(sp)
    80000478:	f15a                	sd	s6,160(sp)
    8000047a:	f55e                	sd	s7,168(sp)
    8000047c:	f962                	sd	s8,176(sp)
    8000047e:	fd66                	sd	s9,184(sp)
    80000480:	e1ea                	sd	s10,192(sp)
    80000482:	e5ee                	sd	s11,200(sp)
    80000484:	e9f2                	sd	t3,208(sp)
    80000486:	edf6                	sd	t4,216(sp)
    80000488:	f1fa                	sd	t5,224(sp)
    8000048a:	f5fe                	sd	t6,232(sp)
    8000048c:	00006297          	auipc	t0,0x6
    80000490:	3d42b283          	ld	t0,980(t0) # 80006860 <xCriticalNesting>
    80000494:	f996                	sd	t0,240(sp)
    80000496:	300022f3          	csrr	t0,mstatus
    8000049a:	e416                	sd	t0,8(sp)
    8000049c:	00017297          	auipc	t0,0x17
    800004a0:	6b42b283          	ld	t0,1716(t0) # 80017b50 <pxCurrentTCB>
    800004a4:	0022b023          	sd	sp,0(t0)
    800004a8:	34202573          	csrr	a0,mcause
    800004ac:	341025f3          	csrr	a1,mepc
    800004b0:	e02e                	sd	a1,0(sp)
    800004b2:	00006117          	auipc	sp,0x6
    800004b6:	36e13103          	ld	sp,878(sp) # 80006820 <xISRStackTop>
    call freertos_risc_v_application_interrupt_handler
    800004ba:	00005097          	auipc	ra,0x5
    800004be:	29e080e7          	jalr	670(ra) # 80005758 <freertos_risc_v_application_interrupt_handler>
    portcontextRESTORE_CONTEXT
    800004c2:	00017317          	auipc	t1,0x17
    800004c6:	68e33303          	ld	t1,1678(t1) # 80017b50 <pxCurrentTCB>
    800004ca:	00033103          	ld	sp,0(t1)
    800004ce:	6282                	ld	t0,0(sp)
    800004d0:	34129073          	csrw	mepc,t0
    800004d4:	6e22                	ld	t3,8(sp)
    800004d6:	300e1073          	csrw	mstatus,t3
    800004da:	72ce                	ld	t0,240(sp)
    800004dc:	00006317          	auipc	t1,0x6
    800004e0:	37c33303          	ld	t1,892(t1) # 80006858 <pxCriticalNesting>
    800004e4:	00533023          	sd	t0,0(t1)
    800004e8:	60c2                	ld	ra,16(sp)
    800004ea:	62e2                	ld	t0,24(sp)
    800004ec:	7302                	ld	t1,32(sp)
    800004ee:	73a2                	ld	t2,40(sp)
    800004f0:	7442                	ld	s0,48(sp)
    800004f2:	74e2                	ld	s1,56(sp)
    800004f4:	6506                	ld	a0,64(sp)
    800004f6:	65a6                	ld	a1,72(sp)
    800004f8:	6646                	ld	a2,80(sp)
    800004fa:	66e6                	ld	a3,88(sp)
    800004fc:	7706                	ld	a4,96(sp)
    800004fe:	77a6                	ld	a5,104(sp)
    80000500:	7846                	ld	a6,112(sp)
    80000502:	78e6                	ld	a7,120(sp)
    80000504:	690a                	ld	s2,128(sp)
    80000506:	69aa                	ld	s3,136(sp)
    80000508:	6a4a                	ld	s4,144(sp)
    8000050a:	6aea                	ld	s5,152(sp)
    8000050c:	7b0a                	ld	s6,160(sp)
    8000050e:	7baa                	ld	s7,168(sp)
    80000510:	7c4a                	ld	s8,176(sp)
    80000512:	7cea                	ld	s9,184(sp)
    80000514:	6d0e                	ld	s10,192(sp)
    80000516:	6dae                	ld	s11,200(sp)
    80000518:	6e4e                	ld	t3,208(sp)
    8000051a:	6eee                	ld	t4,216(sp)
    8000051c:	7f0e                	ld	t5,224(sp)
    8000051e:	7fae                	ld	t6,232(sp)
    80000520:	0f810113          	addi	sp,sp,248
    80000524:	30200073          	mret

Disassembly of section .text.freertos_risc_v_mtimer_interrupt_handler:

0000000080000528 <freertos_risc_v_mtimer_interrupt_handler>:
    portcontextSAVE_INTERRUPT_CONTEXT
    80000528:	f0810113          	addi	sp,sp,-248
    8000052c:	e806                	sd	ra,16(sp)
    8000052e:	ec16                	sd	t0,24(sp)
    80000530:	f01a                	sd	t1,32(sp)
    80000532:	f41e                	sd	t2,40(sp)
    80000534:	f822                	sd	s0,48(sp)
    80000536:	fc26                	sd	s1,56(sp)
    80000538:	e0aa                	sd	a0,64(sp)
    8000053a:	e4ae                	sd	a1,72(sp)
    8000053c:	e8b2                	sd	a2,80(sp)
    8000053e:	ecb6                	sd	a3,88(sp)
    80000540:	f0ba                	sd	a4,96(sp)
    80000542:	f4be                	sd	a5,104(sp)
    80000544:	f8c2                	sd	a6,112(sp)
    80000546:	fcc6                	sd	a7,120(sp)
    80000548:	e14a                	sd	s2,128(sp)
    8000054a:	e54e                	sd	s3,136(sp)
    8000054c:	e952                	sd	s4,144(sp)
    8000054e:	ed56                	sd	s5,152(sp)
    80000550:	f15a                	sd	s6,160(sp)
    80000552:	f55e                	sd	s7,168(sp)
    80000554:	f962                	sd	s8,176(sp)
    80000556:	fd66                	sd	s9,184(sp)
    80000558:	e1ea                	sd	s10,192(sp)
    8000055a:	e5ee                	sd	s11,200(sp)
    8000055c:	e9f2                	sd	t3,208(sp)
    8000055e:	edf6                	sd	t4,216(sp)
    80000560:	f1fa                	sd	t5,224(sp)
    80000562:	f5fe                	sd	t6,232(sp)
    80000564:	00006297          	auipc	t0,0x6
    80000568:	2fc2b283          	ld	t0,764(t0) # 80006860 <xCriticalNesting>
    8000056c:	f996                	sd	t0,240(sp)
    8000056e:	300022f3          	csrr	t0,mstatus
    80000572:	e416                	sd	t0,8(sp)
    80000574:	00017297          	auipc	t0,0x17
    80000578:	5dc2b283          	ld	t0,1500(t0) # 80017b50 <pxCurrentTCB>
    8000057c:	0022b023          	sd	sp,0(t0)
    80000580:	34202573          	csrr	a0,mcause
    80000584:	341025f3          	csrr	a1,mepc
    80000588:	e02e                	sd	a1,0(sp)
    8000058a:	00006117          	auipc	sp,0x6
    8000058e:	29613103          	ld	sp,662(sp) # 80006820 <xISRStackTop>
    portUPDATE_MTIMER_COMPARE_REGISTER
    80000592:	00017517          	auipc	a0,0x17
    80000596:	61e53503          	ld	a0,1566(a0) # 80017bb0 <pullMachineTimerCompareRegister>
    8000059a:	00006597          	auipc	a1,0x6
    8000059e:	2ce5b583          	ld	a1,718(a1) # 80006868 <pullNextTime>
    800005a2:	0005b383          	ld	t2,0(a1)
    800005a6:	00753023          	sd	t2,0(a0)
    800005aa:	00006297          	auipc	t0,0x6
    800005ae:	26e2b283          	ld	t0,622(t0) # 80006818 <uxTimerIncrementsForOneTick>
    800005b2:	00728eb3          	add	t4,t0,t2
    800005b6:	01d5b023          	sd	t4,0(a1)
    call xTaskIncrementTick
    800005ba:	00001097          	auipc	ra,0x1
    800005be:	016080e7          	jalr	22(ra) # 800015d0 <xTaskIncrementTick>
    beqz a0, exit_without_context_switch    /* Don't switch context if incrementing tick didn't unblock a task. */
    800005c2:	c509                	beqz	a0,800005cc <exit_without_context_switch>
    call vTaskSwitchContext
    800005c4:	00001097          	auipc	ra,0x1
    800005c8:	030080e7          	jalr	48(ra) # 800015f4 <vTaskSwitchContext>

00000000800005cc <exit_without_context_switch>:
    portcontextRESTORE_CONTEXT
    800005cc:	00017317          	auipc	t1,0x17
    800005d0:	58433303          	ld	t1,1412(t1) # 80017b50 <pxCurrentTCB>
    800005d4:	00033103          	ld	sp,0(t1)
    800005d8:	6282                	ld	t0,0(sp)
    800005da:	34129073          	csrw	mepc,t0
    800005de:	6e22                	ld	t3,8(sp)
    800005e0:	300e1073          	csrw	mstatus,t3
    800005e4:	72ce                	ld	t0,240(sp)
    800005e6:	00006317          	auipc	t1,0x6
    800005ea:	27233303          	ld	t1,626(t1) # 80006858 <pxCriticalNesting>
    800005ee:	00533023          	sd	t0,0(t1)
    800005f2:	60c2                	ld	ra,16(sp)
    800005f4:	62e2                	ld	t0,24(sp)
    800005f6:	7302                	ld	t1,32(sp)
    800005f8:	73a2                	ld	t2,40(sp)
    800005fa:	7442                	ld	s0,48(sp)
    800005fc:	74e2                	ld	s1,56(sp)
    800005fe:	6506                	ld	a0,64(sp)
    80000600:	65a6                	ld	a1,72(sp)
    80000602:	6646                	ld	a2,80(sp)
    80000604:	66e6                	ld	a3,88(sp)
    80000606:	7706                	ld	a4,96(sp)
    80000608:	77a6                	ld	a5,104(sp)
    8000060a:	7846                	ld	a6,112(sp)
    8000060c:	78e6                	ld	a7,120(sp)
    8000060e:	690a                	ld	s2,128(sp)
    80000610:	69aa                	ld	s3,136(sp)
    80000612:	6a4a                	ld	s4,144(sp)
    80000614:	6aea                	ld	s5,152(sp)
    80000616:	7b0a                	ld	s6,160(sp)
    80000618:	7baa                	ld	s7,168(sp)
    8000061a:	7c4a                	ld	s8,176(sp)
    8000061c:	7cea                	ld	s9,184(sp)
    8000061e:	6d0e                	ld	s10,192(sp)
    80000620:	6dae                	ld	s11,200(sp)
    80000622:	6e4e                	ld	t3,208(sp)
    80000624:	6eee                	ld	t4,216(sp)
    80000626:	7f0e                	ld	t5,224(sp)
    80000628:	7fae                	ld	t6,232(sp)
    8000062a:	0f810113          	addi	sp,sp,248
    8000062e:	30200073          	mret

Disassembly of section .text:

0000000080000632 <prvAddCurrentTaskToDelayedList>:
#endif /* if ( ( configGENERATE_RUN_TIME_STATS == 1 ) && ( INCLUDE_xTaskGetIdleTaskHandle == 1 ) ) */
/*-----------------------------------------------------------*/

static void prvAddCurrentTaskToDelayedList( TickType_t xTicksToWait,
                                            const BaseType_t xCanBlockIndefinitely )
{
    80000632:	7139                	addi	sp,sp,-64
    80000634:	f426                	sd	s1,40(sp)
    }
    #endif

    /* Remove the task from the ready list before adding it to the blocked list
     * as the same list item is used for both lists. */
    if( uxListRemove( &( pxCurrentTCB->xStateListItem ) ) == ( UBaseType_t ) 0 )
    80000636:	00017497          	auipc	s1,0x17
    8000063a:	51a48493          	addi	s1,s1,1306 # 80017b50 <pxCurrentTCB>
{
    8000063e:	f04a                	sd	s2,32(sp)
    80000640:	ec4e                	sd	s3,24(sp)
    const TickType_t xConstTickCount = xTickCount;
    80000642:	00017917          	auipc	s2,0x17
    80000646:	4e693903          	ld	s2,1254(s2) # 80017b28 <xTickCount>
{
    8000064a:	e852                	sd	s4,16(sp)
    List_t * const pxDelayedList = pxDelayedTaskList;
    8000064c:	00017997          	auipc	s3,0x17
    80000650:	4fc9b983          	ld	s3,1276(s3) # 80017b48 <pxDelayedTaskList>
    List_t * const pxOverflowDelayedList = pxOverflowDelayedTaskList;
    80000654:	00017a17          	auipc	s4,0x17
    80000658:	4eca3a03          	ld	s4,1260(s4) # 80017b40 <pxOverflowDelayedTaskList>
    if( uxListRemove( &( pxCurrentTCB->xStateListItem ) ) == ( UBaseType_t ) 0 )
    8000065c:	609c                	ld	a5,0(s1)
{
    8000065e:	f822                	sd	s0,48(sp)
    80000660:	842a                	mv	s0,a0
    if( uxListRemove( &( pxCurrentTCB->xStateListItem ) ) == ( UBaseType_t ) 0 )
    80000662:	00878513          	addi	a0,a5,8
{
    80000666:	e456                	sd	s5,8(sp)
    80000668:	fc06                	sd	ra,56(sp)
    8000066a:	8aae                	mv	s5,a1
    if( uxListRemove( &( pxCurrentTCB->xStateListItem ) ) == ( UBaseType_t ) 0 )
    8000066c:	00002097          	auipc	ra,0x2
    80000670:	fc4080e7          	jalr	-60(ra) # 80002630 <uxListRemove>
    80000674:	ed19                	bnez	a0,80000692 <prvAddCurrentTaskToDelayedList+0x60>
    {
        /* The current task must be in a ready list, so there is no need to
         * check, and the port reset macro can be called directly. */
        portRESET_READY_PRIORITY( pxCurrentTCB->uxPriority, uxTopReadyPriority );
    80000676:	609c                	ld	a5,0(s1)
    80000678:	00017717          	auipc	a4,0x17
    8000067c:	4a870713          	addi	a4,a4,1192 # 80017b20 <uxTopReadyPriority>
    80000680:	6314                	ld	a3,0(a4)
    80000682:	6fb0                	ld	a2,88(a5)
    80000684:	4785                	li	a5,1
    80000686:	00c797b3          	sll	a5,a5,a2
    8000068a:	fff7c793          	not	a5,a5
    8000068e:	8ff5                	and	a5,a5,a3
    80000690:	e31c                	sd	a5,0(a4)
        mtCOVERAGE_TEST_MARKER();
    }

    #if ( INCLUDE_vTaskSuspend == 1 )
    {
        if( ( xTicksToWait == portMAX_DELAY ) && ( xCanBlockIndefinitely != pdFALSE ) )
    80000692:	57fd                	li	a5,-1
    80000694:	04f40d63          	beq	s0,a5,800006ee <prvAddCurrentTaskToDelayedList+0xbc>
             * does not occur.  This may overflow but this doesn't matter, the
             * kernel will manage it correctly. */
            xTimeToWake = xConstTickCount + xTicksToWait;

            /* The list item will be inserted in wake time order. */
            listSET_LIST_ITEM_VALUE( &( pxCurrentTCB->xStateListItem ), xTimeToWake );
    80000698:	609c                	ld	a5,0(s1)
            xTimeToWake = xConstTickCount + xTicksToWait;
    8000069a:	944a                	add	s0,s0,s2
            if( xTimeToWake < xConstTickCount )
            {
                /* Wake time has overflowed.  Place this item in the overflow
                 * list. */
                traceMOVED_TASK_TO_OVERFLOW_DELAYED_LIST();
                vListInsert( pxOverflowDelayedList, &( pxCurrentTCB->xStateListItem ) );
    8000069c:	608c                	ld	a1,0(s1)
            listSET_LIST_ITEM_VALUE( &( pxCurrentTCB->xStateListItem ), xTimeToWake );
    8000069e:	e780                	sd	s0,8(a5)
            if( xTimeToWake < xConstTickCount )
    800006a0:	03246963          	bltu	s0,s2,800006d2 <prvAddCurrentTaskToDelayedList+0xa0>
            else
            {
                /* The wake time has not overflowed, so the current block list
                 * is used. */
                traceMOVED_TASK_TO_DELAYED_LIST();
                vListInsert( pxDelayedList, &( pxCurrentTCB->xStateListItem ) );
    800006a4:	854e                	mv	a0,s3
    800006a6:	05a1                	addi	a1,a1,8
    800006a8:	00002097          	auipc	ra,0x2
    800006ac:	f5a080e7          	jalr	-166(ra) # 80002602 <vListInsert>

                /* If the task entering the blocked state was placed at the
                 * head of the list of blocked tasks then xNextTaskUnblockTime
                 * needs to be updated too. */
                if( xTimeToWake < xNextTaskUnblockTime )
    800006b0:	00017797          	auipc	a5,0x17
    800006b4:	44078793          	addi	a5,a5,1088 # 80017af0 <xNextTaskUnblockTime>
    800006b8:	6398                	ld	a4,0(a5)
    800006ba:	00e47363          	bgeu	s0,a4,800006c0 <prvAddCurrentTaskToDelayedList+0x8e>
                {
                    xNextTaskUnblockTime = xTimeToWake;
    800006be:	e380                	sd	s0,0(a5)

        /* Avoid compiler warning when INCLUDE_vTaskSuspend is not 1. */
        ( void ) xCanBlockIndefinitely;
    }
    #endif /* INCLUDE_vTaskSuspend */
}
    800006c0:	70e2                	ld	ra,56(sp)
    800006c2:	7442                	ld	s0,48(sp)
    800006c4:	74a2                	ld	s1,40(sp)
    800006c6:	7902                	ld	s2,32(sp)
    800006c8:	69e2                	ld	s3,24(sp)
    800006ca:	6a42                	ld	s4,16(sp)
    800006cc:	6aa2                	ld	s5,8(sp)
    800006ce:	6121                	addi	sp,sp,64
    800006d0:	8082                	ret
    800006d2:	7442                	ld	s0,48(sp)
    800006d4:	70e2                	ld	ra,56(sp)
    800006d6:	74a2                	ld	s1,40(sp)
    800006d8:	7902                	ld	s2,32(sp)
    800006da:	69e2                	ld	s3,24(sp)
    800006dc:	6aa2                	ld	s5,8(sp)
                vListInsert( pxOverflowDelayedList, &( pxCurrentTCB->xStateListItem ) );
    800006de:	8552                	mv	a0,s4
}
    800006e0:	6a42                	ld	s4,16(sp)
                vListInsert( pxOverflowDelayedList, &( pxCurrentTCB->xStateListItem ) );
    800006e2:	05a1                	addi	a1,a1,8
}
    800006e4:	6121                	addi	sp,sp,64
                vListInsert( pxOverflowDelayedList, &( pxCurrentTCB->xStateListItem ) );
    800006e6:	00002317          	auipc	t1,0x2
    800006ea:	f1c30067          	jr	-228(t1) # 80002602 <vListInsert>
        if( ( xTicksToWait == portMAX_DELAY ) && ( xCanBlockIndefinitely != pdFALSE ) )
    800006ee:	fa0a85e3          	beqz	s5,80000698 <prvAddCurrentTaskToDelayedList+0x66>
            listINSERT_END( &xSuspendedTaskList, &( pxCurrentTCB->xStateListItem ) );
    800006f2:	00006797          	auipc	a5,0x6
    800006f6:	17e78793          	addi	a5,a5,382 # 80006870 <xSuspendedTaskList>
    800006fa:	6798                	ld	a4,8(a5)
    800006fc:	608c                	ld	a1,0(s1)
    800006fe:	6094                	ld	a3,0(s1)
    80000700:	6b10                	ld	a2,16(a4)
    80000702:	e998                	sd	a4,16(a1)
    80000704:	608c                	ld	a1,0(s1)
    80000706:	ee90                	sd	a2,24(a3)
    80000708:	01073803          	ld	a6,16(a4)
    8000070c:	6090                	ld	a2,0(s1)
    8000070e:	6394                	ld	a3,0(a5)
    80000710:	6088                	ld	a0,0(s1)
    80000712:	05a1                	addi	a1,a1,8
    80000714:	00b83423          	sd	a1,8(a6)
    80000718:	0621                	addi	a2,a2,8
    8000071a:	eb10                	sd	a2,16(a4)
    8000071c:	00168713          	addi	a4,a3,1
    80000720:	f51c                	sd	a5,40(a0)
    80000722:	e398                	sd	a4,0(a5)
    80000724:	bf71                	j	800006c0 <prvAddCurrentTaskToDelayedList+0x8e>

0000000080000726 <prvCheckTasksWaitingTermination>:
{
    80000726:	7179                	addi	sp,sp,-48
    80000728:	e84a                	sd	s2,16(sp)
        while( uxDeletedTasksWaitingCleanUp > ( UBaseType_t ) 0U )
    8000072a:	00017917          	auipc	s2,0x17
    8000072e:	40e90913          	addi	s2,s2,1038 # 80017b38 <uxDeletedTasksWaitingCleanUp>
    80000732:	00093783          	ld	a5,0(s2)
{
    80000736:	f406                	sd	ra,40(sp)
    80000738:	f022                	sd	s0,32(sp)
    8000073a:	ec26                	sd	s1,24(sp)
    8000073c:	e44e                	sd	s3,8(sp)
    8000073e:	e052                	sd	s4,0(sp)
        while( uxDeletedTasksWaitingCleanUp > ( UBaseType_t ) 0U )
    80000740:	cba5                	beqz	a5,800007b0 <prvCheckTasksWaitingTermination+0x8a>
    80000742:	00006417          	auipc	s0,0x6
    80000746:	11e40413          	addi	s0,s0,286 # 80006860 <xCriticalNesting>
    8000074a:	00006a17          	auipc	s4,0x6
    8000074e:	126a0a13          	addi	s4,s4,294 # 80006870 <xSuspendedTaskList>
    80000752:	00017997          	auipc	s3,0x17
    80000756:	3de98993          	addi	s3,s3,990 # 80017b30 <uxCurrentNumberOfTasks>
                taskENTER_CRITICAL();
    8000075a:	30047073          	csrci	mstatus,8
                        pxTCB = listGET_OWNER_OF_HEAD_ENTRY( ( &xTasksWaitingTermination ) );
    8000075e:	040a3703          	ld	a4,64(s4)
                taskENTER_CRITICAL();
    80000762:	601c                	ld	a5,0(s0)
                        pxTCB = listGET_OWNER_OF_HEAD_ENTRY( ( &xTasksWaitingTermination ) );
    80000764:	6f04                	ld	s1,24(a4)
                taskENTER_CRITICAL();
    80000766:	0785                	addi	a5,a5,1
    80000768:	e01c                	sd	a5,0(s0)
                        ( void ) uxListRemove( &( pxTCB->xStateListItem ) );
    8000076a:	00848513          	addi	a0,s1,8
    8000076e:	00002097          	auipc	ra,0x2
    80000772:	ec2080e7          	jalr	-318(ra) # 80002630 <uxListRemove>
                        --uxCurrentNumberOfTasks;
    80000776:	0009b703          	ld	a4,0(s3)
                taskEXIT_CRITICAL();
    8000077a:	601c                	ld	a5,0(s0)
                        --uxCurrentNumberOfTasks;
    8000077c:	177d                	addi	a4,a4,-1
    8000077e:	00e9b023          	sd	a4,0(s3)
                        --uxDeletedTasksWaitingCleanUp;
    80000782:	00093703          	ld	a4,0(s2)
                taskEXIT_CRITICAL();
    80000786:	17fd                	addi	a5,a5,-1
    80000788:	e01c                	sd	a5,0(s0)
                        --uxDeletedTasksWaitingCleanUp;
    8000078a:	177d                	addi	a4,a4,-1
    8000078c:	00e93023          	sd	a4,0(s2)
                taskEXIT_CRITICAL();
    80000790:	e399                	bnez	a5,80000796 <prvCheckTasksWaitingTermination+0x70>
    80000792:	30046073          	csrsi	mstatus,8
            vPortFreeStack( pxTCB->pxStack );
    80000796:	70a8                	ld	a0,96(s1)
    80000798:	00004097          	auipc	ra,0x4
    8000079c:	3e8080e7          	jalr	1000(ra) # 80004b80 <vPortFree>
            vPortFree( pxTCB );
    800007a0:	8526                	mv	a0,s1
    800007a2:	00004097          	auipc	ra,0x4
    800007a6:	3de080e7          	jalr	990(ra) # 80004b80 <vPortFree>
        while( uxDeletedTasksWaitingCleanUp > ( UBaseType_t ) 0U )
    800007aa:	00093783          	ld	a5,0(s2)
    800007ae:	f7d5                	bnez	a5,8000075a <prvCheckTasksWaitingTermination+0x34>
}
    800007b0:	70a2                	ld	ra,40(sp)
    800007b2:	7402                	ld	s0,32(sp)
    800007b4:	64e2                	ld	s1,24(sp)
    800007b6:	6942                	ld	s2,16(sp)
    800007b8:	69a2                	ld	s3,8(sp)
    800007ba:	6a02                	ld	s4,0(sp)
    800007bc:	6145                	addi	sp,sp,48
    800007be:	8082                	ret

00000000800007c0 <prvIdleTask>:
{
    800007c0:	1101                	addi	sp,sp,-32
    800007c2:	e822                	sd	s0,16(sp)
    800007c4:	e426                	sd	s1,8(sp)
    800007c6:	ec06                	sd	ra,24(sp)
    800007c8:	00006497          	auipc	s1,0x6
    800007cc:	0a848493          	addi	s1,s1,168 # 80006870 <xSuspendedTaskList>
            if( listCURRENT_LIST_LENGTH( &( pxReadyTasksLists[ tskIDLE_PRIORITY ] ) ) > ( UBaseType_t ) configNUMBER_OF_CORES )
    800007d0:	4405                	li	s0,1
        prvCheckTasksWaitingTermination();
    800007d2:	00000097          	auipc	ra,0x0
    800007d6:	f54080e7          	jalr	-172(ra) # 80000726 <prvCheckTasksWaitingTermination>
            if( listCURRENT_LIST_LENGTH( &( pxReadyTasksLists[ tskIDLE_PRIORITY ] ) ) > ( UBaseType_t ) configNUMBER_OF_CORES )
    800007da:	68bc                	ld	a5,80(s1)
    800007dc:	fef47be3          	bgeu	s0,a5,800007d2 <prvIdleTask+0x12>
                taskYIELD();
    800007e0:	00000073          	ecall
        prvCheckTasksWaitingTermination();
    800007e4:	00000097          	auipc	ra,0x0
    800007e8:	f42080e7          	jalr	-190(ra) # 80000726 <prvCheckTasksWaitingTermination>
            if( listCURRENT_LIST_LENGTH( &( pxReadyTasksLists[ tskIDLE_PRIORITY ] ) ) > ( UBaseType_t ) configNUMBER_OF_CORES )
    800007ec:	68bc                	ld	a5,80(s1)
    800007ee:	fef469e3          	bltu	s0,a5,800007e0 <prvIdleTask+0x20>
    800007f2:	b7c5                	j	800007d2 <prvIdleTask+0x12>

00000000800007f4 <xTaskIncrementTick.part.0>:
        const TickType_t xConstTickCount = xTickCount + ( TickType_t ) 1;
    800007f4:	00017797          	auipc	a5,0x17
    800007f8:	33478793          	addi	a5,a5,820 # 80017b28 <xTickCount>
    800007fc:	0007b303          	ld	t1,0(a5)
BaseType_t xTaskIncrementTick( void )
    80000800:	1101                	addi	sp,sp,-32
    80000802:	ec22                	sd	s0,24(sp)
    80000804:	e826                	sd	s1,16(sp)
    80000806:	e44a                	sd	s2,8(sp)
        const TickType_t xConstTickCount = xTickCount + ( TickType_t ) 1;
    80000808:	0305                	addi	t1,t1,1
        xTickCount = xConstTickCount;
    8000080a:	0067b023          	sd	t1,0(a5)
        if( xConstTickCount == ( TickType_t ) 0U )
    8000080e:	00017417          	auipc	s0,0x17
    80000812:	2e240413          	addi	s0,s0,738 # 80017af0 <xNextTaskUnblockTime>
    80000816:	04031563          	bnez	t1,80000860 <xTaskIncrementTick.part.0+0x6c>
            taskSWITCH_DELAYED_LISTS();
    8000081a:	00017797          	auipc	a5,0x17
    8000081e:	32e78793          	addi	a5,a5,814 # 80017b48 <pxDelayedTaskList>
    80000822:	6398                	ld	a4,0(a5)
    80000824:	6318                	ld	a4,0(a4)
    80000826:	c701                	beqz	a4,8000082e <xTaskIncrementTick.part.0+0x3a>
    80000828:	30047073          	csrci	mstatus,8
    8000082c:	a001                	j	8000082c <xTaskIncrementTick.part.0+0x38>
    8000082e:	00017717          	auipc	a4,0x17
    80000832:	31270713          	addi	a4,a4,786 # 80017b40 <pxOverflowDelayedTaskList>
    80000836:	6390                	ld	a2,0(a5)
    80000838:	630c                	ld	a1,0(a4)
    8000083a:	00017697          	auipc	a3,0x17
    8000083e:	2c668693          	addi	a3,a3,710 # 80017b00 <xNumOfOverflows>
    80000842:	e38c                	sd	a1,0(a5)
    80000844:	e310                	sd	a2,0(a4)
    80000846:	6298                	ld	a4,0(a3)
    80000848:	0705                	addi	a4,a4,1
    8000084a:	e298                	sd	a4,0(a3)
    if( listLIST_IS_EMPTY( pxDelayedTaskList ) != pdFALSE )
    8000084c:	6398                	ld	a4,0(a5)
    8000084e:	6318                	ld	a4,0(a4)
    80000850:	14071863          	bnez	a4,800009a0 <xTaskIncrementTick.part.0+0x1ac>
        xNextTaskUnblockTime = portMAX_DELAY;
    80000854:	00017417          	auipc	s0,0x17
    80000858:	29c40413          	addi	s0,s0,668 # 80017af0 <xNextTaskUnblockTime>
    8000085c:	57fd                	li	a5,-1
    8000085e:	e01c                	sd	a5,0(s0)
        if( xConstTickCount >= xNextTaskUnblockTime )
    80000860:	601c                	ld	a5,0(s0)
    80000862:	0ef36663          	bltu	t1,a5,8000094e <xTaskIncrementTick.part.0+0x15a>
                if( listLIST_IS_EMPTY( pxDelayedTaskList ) != pdFALSE )
    80000866:	00017e17          	auipc	t3,0x17
    8000086a:	2e2e0e13          	addi	t3,t3,738 # 80017b48 <pxDelayedTaskList>
    8000086e:	000e3783          	ld	a5,0(t3)
    BaseType_t xSwitchRequired = pdFALSE;
    80000872:	4501                	li	a0,0
    80000874:	00006f17          	auipc	t5,0x6
    80000878:	ffcf0f13          	addi	t5,t5,-4 # 80006870 <xSuspendedTaskList>
                if( listLIST_IS_EMPTY( pxDelayedTaskList ) != pdFALSE )
    8000087c:	639c                	ld	a5,0(a5)
    8000087e:	00017f97          	auipc	t6,0x17
    80000882:	2d2f8f93          	addi	t6,t6,722 # 80017b50 <pxCurrentTCB>
    80000886:	10078863          	beqz	a5,80000996 <xTaskIncrementTick.part.0+0x1a2>
                    prvAddTaskToReadyList( pxTCB );
    8000088a:	00017e97          	auipc	t4,0x17
    8000088e:	296e8e93          	addi	t4,t4,662 # 80017b20 <uxTopReadyPriority>
    80000892:	4385                	li	t2,1
    80000894:	00006297          	auipc	t0,0x6
    80000898:	02c28293          	addi	t0,t0,44 # 800068c0 <pxReadyTasksLists>
    8000089c:	a059                	j	80000922 <xTaskIncrementTick.part.0+0x12e>
                    listREMOVE_ITEM( &( pxTCB->xStateListItem ) );
    8000089e:	6290                	ld	a2,0(a3)
                    if( listLIST_ITEM_CONTAINER( &( pxTCB->xEventListItem ) ) != NULL )
    800008a0:	6bb8                	ld	a4,80(a5)
                    listREMOVE_ITEM( &( pxTCB->xStateListItem ) );
    800008a2:	0207b423          	sd	zero,40(a5)
    800008a6:	167d                	addi	a2,a2,-1
    800008a8:	e290                	sd	a2,0(a3)
                    if( listLIST_ITEM_CONTAINER( &( pxTCB->xEventListItem ) ) != NULL )
    800008aa:	cf19                	beqz	a4,800008c8 <xTaskIncrementTick.part.0+0xd4>
                        listREMOVE_ITEM( &( pxTCB->xEventListItem ) );
    800008ac:	63b0                	ld	a2,64(a5)
    800008ae:	7f94                	ld	a3,56(a5)
    800008b0:	00873803          	ld	a6,8(a4)
    800008b4:	ea90                	sd	a2,16(a3)
    800008b6:	63b0                	ld	a2,64(a5)
    800008b8:	e614                	sd	a3,8(a2)
    800008ba:	0d180c63          	beq	a6,a7,80000992 <xTaskIncrementTick.part.0+0x19e>
    800008be:	6314                	ld	a3,0(a4)
    800008c0:	0407b823          	sd	zero,80(a5)
    800008c4:	16fd                	addi	a3,a3,-1
    800008c6:	e314                	sd	a3,0(a4)
                    prvAddTaskToReadyList( pxTCB );
    800008c8:	6fb4                	ld	a3,88(a5)
    800008ca:	000eb483          	ld	s1,0(t4)
    800008ce:	00269713          	slli	a4,a3,0x2
    800008d2:	9736                	add	a4,a4,a3
    800008d4:	070e                	slli	a4,a4,0x3
    800008d6:	00ef0833          	add	a6,t5,a4
    800008da:	05883603          	ld	a2,88(a6)
    800008de:	00d398b3          	sll	a7,t2,a3
    800008e2:	0098e8b3          	or	a7,a7,s1
    800008e6:	01063903          	ld	s2,16(a2)
    800008ea:	011eb023          	sd	a7,0(t4)
    800008ee:	05083883          	ld	a7,80(a6)
    800008f2:	0127bc23          	sd	s2,24(a5)
    800008f6:	01063903          	ld	s2,16(a2)
                            if( pxTCB->uxPriority > pxCurrentTCB->uxPriority )
    800008fa:	000fb483          	ld	s1,0(t6)
                    prvAddTaskToReadyList( pxTCB );
    800008fe:	eb90                	sd	a2,16(a5)
    80000900:	9716                	add	a4,a4,t0
                            if( pxTCB->uxPriority > pxCurrentTCB->uxPriority )
    80000902:	6ca4                	ld	s1,88(s1)
                    prvAddTaskToReadyList( pxTCB );
    80000904:	00b93423          	sd	a1,8(s2)
    80000908:	ea0c                	sd	a1,16(a2)
    8000090a:	f798                	sd	a4,40(a5)
    8000090c:	00188793          	addi	a5,a7,1
    80000910:	04f83823          	sd	a5,80(a6)
                            if( pxTCB->uxPriority > pxCurrentTCB->uxPriority )
    80000914:	00d4f363          	bgeu	s1,a3,8000091a <xTaskIncrementTick.part.0+0x126>
                                xSwitchRequired = pdTRUE;
    80000918:	4505                	li	a0,1
                if( listLIST_IS_EMPTY( pxDelayedTaskList ) != pdFALSE )
    8000091a:	000e3783          	ld	a5,0(t3)
    8000091e:	639c                	ld	a5,0(a5)
    80000920:	cbbd                	beqz	a5,80000996 <xTaskIncrementTick.part.0+0x1a2>
                    pxTCB = listGET_OWNER_OF_HEAD_ENTRY( pxDelayedTaskList );
    80000922:	000e3783          	ld	a5,0(t3)
    80000926:	6f9c                	ld	a5,24(a5)
    80000928:	6f9c                	ld	a5,24(a5)
                    xItemValue = listGET_LIST_ITEM_VALUE( &( pxTCB->xStateListItem ) );
    8000092a:	6798                	ld	a4,8(a5)
                    listREMOVE_ITEM( &( pxTCB->xStateListItem ) );
    8000092c:	00878593          	addi	a1,a5,8
                        listREMOVE_ITEM( &( pxTCB->xEventListItem ) );
    80000930:	03078893          	addi	a7,a5,48
                    if( xConstTickCount < xItemValue )
    80000934:	06e36463          	bltu	t1,a4,8000099c <xTaskIncrementTick.part.0+0x1a8>
                    listREMOVE_ITEM( &( pxTCB->xStateListItem ) );
    80000938:	7794                	ld	a3,40(a5)
    8000093a:	6b90                	ld	a2,16(a5)
    8000093c:	6f98                	ld	a4,24(a5)
    8000093e:	0086b803          	ld	a6,8(a3)
    80000942:	ea18                	sd	a4,16(a2)
    80000944:	e710                	sd	a2,8(a4)
    80000946:	f4b81ce3          	bne	a6,a1,8000089e <xTaskIncrementTick.part.0+0xaa>
    8000094a:	e698                	sd	a4,8(a3)
    8000094c:	bf89                	j	8000089e <xTaskIncrementTick.part.0+0xaa>
    BaseType_t xSwitchRequired = pdFALSE;
    8000094e:	4501                	li	a0,0
    80000950:	00006f17          	auipc	t5,0x6
    80000954:	f20f0f13          	addi	t5,t5,-224 # 80006870 <xSuspendedTaskList>
    80000958:	00017f97          	auipc	t6,0x17
    8000095c:	1f8f8f93          	addi	t6,t6,504 # 80017b50 <pxCurrentTCB>
                if( listCURRENT_LIST_LENGTH( &( pxReadyTasksLists[ pxCurrentTCB->uxPriority ] ) ) > 1U )
    80000960:	000fb783          	ld	a5,0(t6)
    80000964:	4685                	li	a3,1
    80000966:	6fb8                	ld	a4,88(a5)
    80000968:	00271793          	slli	a5,a4,0x2
    8000096c:	97ba                	add	a5,a5,a4
    8000096e:	078e                	slli	a5,a5,0x3
    80000970:	9f3e                	add	t5,t5,a5
    80000972:	050f3783          	ld	a5,80(t5)
    80000976:	00f6f363          	bgeu	a3,a5,8000097c <xTaskIncrementTick.part.0+0x188>
                    xSwitchRequired = pdTRUE;
    8000097a:	4505                	li	a0,1
                if( xYieldPendings[ 0 ] != pdFALSE )
    8000097c:	00017797          	auipc	a5,0x17
    80000980:	18c7b783          	ld	a5,396(a5) # 80017b08 <xYieldPendings>
    80000984:	c391                	beqz	a5,80000988 <xTaskIncrementTick.part.0+0x194>
                    xSwitchRequired = pdTRUE;
    80000986:	4505                	li	a0,1
}
    80000988:	6462                	ld	s0,24(sp)
    8000098a:	64c2                	ld	s1,16(sp)
    8000098c:	6922                	ld	s2,8(sp)
    8000098e:	6105                	addi	sp,sp,32
    80000990:	8082                	ret
                        listREMOVE_ITEM( &( pxTCB->xEventListItem ) );
    80000992:	e710                	sd	a2,8(a4)
    80000994:	b72d                	j	800008be <xTaskIncrementTick.part.0+0xca>
                    xNextTaskUnblockTime = portMAX_DELAY;
    80000996:	57fd                	li	a5,-1
    80000998:	e01c                	sd	a5,0(s0)
                    break;
    8000099a:	b7d9                	j	80000960 <xTaskIncrementTick.part.0+0x16c>
                        xNextTaskUnblockTime = xItemValue;
    8000099c:	e018                	sd	a4,0(s0)
                        break;
    8000099e:	b7c9                	j	80000960 <xTaskIncrementTick.part.0+0x16c>
        xNextTaskUnblockTime = listGET_ITEM_VALUE_OF_HEAD_ENTRY( pxDelayedTaskList );
    800009a0:	639c                	ld	a5,0(a5)
    800009a2:	00017417          	auipc	s0,0x17
    800009a6:	14e40413          	addi	s0,s0,334 # 80017af0 <xNextTaskUnblockTime>
    800009aa:	6f9c                	ld	a5,24(a5)
    800009ac:	639c                	ld	a5,0(a5)
    800009ae:	e01c                	sd	a5,0(s0)
}
    800009b0:	bd45                	j	80000860 <xTaskIncrementTick.part.0+0x6c>

00000000800009b2 <xTaskResumeAll.part.0>:
BaseType_t xTaskResumeAll( void )
    800009b2:	7179                	addi	sp,sp,-48
    800009b4:	f022                	sd	s0,32(sp)
            uxSchedulerSuspended = ( UBaseType_t ) ( uxSchedulerSuspended - 1U );
    800009b6:	00017417          	auipc	s0,0x17
    800009ba:	12a40413          	addi	s0,s0,298 # 80017ae0 <uxSchedulerSuspended>
    800009be:	601c                	ld	a5,0(s0)
BaseType_t xTaskResumeAll( void )
    800009c0:	f406                	sd	ra,40(sp)
    800009c2:	ec26                	sd	s1,24(sp)
            uxSchedulerSuspended = ( UBaseType_t ) ( uxSchedulerSuspended - 1U );
    800009c4:	17fd                	addi	a5,a5,-1
    800009c6:	e01c                	sd	a5,0(s0)
            if( uxSchedulerSuspended == ( UBaseType_t ) 0U )
    800009c8:	601c                	ld	a5,0(s0)
BaseType_t xTaskResumeAll( void )
    800009ca:	e84a                	sd	s2,16(sp)
    800009cc:	e44e                	sd	s3,8(sp)
    800009ce:	e052                	sd	s4,0(sp)
            if( uxSchedulerSuspended == ( UBaseType_t ) 0U )
    800009d0:	ebed                	bnez	a5,80000ac2 <xTaskResumeAll.part.0+0x110>
                if( uxCurrentNumberOfTasks > ( UBaseType_t ) 0U )
    800009d2:	00017797          	auipc	a5,0x17
    800009d6:	15e7b783          	ld	a5,350(a5) # 80017b30 <uxCurrentNumberOfTasks>
    800009da:	c7e5                	beqz	a5,80000ac2 <xTaskResumeAll.part.0+0x110>
                    while( listLIST_IS_EMPTY( &xPendingReadyList ) == pdFALSE )
    800009dc:	00006317          	auipc	t1,0x6
    800009e0:	e9430313          	addi	t1,t1,-364 # 80006870 <xSuspendedTaskList>
    800009e4:	11833783          	ld	a5,280(t1)
    800009e8:	00017497          	auipc	s1,0x17
    800009ec:	12048493          	addi	s1,s1,288 # 80017b08 <xYieldPendings>
    800009f0:	10078c63          	beqz	a5,80000b08 <xTaskResumeAll.part.0+0x156>
    800009f4:	00017e17          	auipc	t3,0x17
    800009f8:	12ce0e13          	addi	t3,t3,300 # 80017b20 <uxTopReadyPriority>
    800009fc:	00006f97          	auipc	t6,0x6
    80000a00:	ec4f8f93          	addi	t6,t6,-316 # 800068c0 <pxReadyTasksLists>
    80000a04:	00017f17          	auipc	t5,0x17
    80000a08:	14cf0f13          	addi	t5,t5,332 # 80017b50 <pxCurrentTCB>
    80000a0c:	00017497          	auipc	s1,0x17
    80000a10:	0fc48493          	addi	s1,s1,252 # 80017b08 <xYieldPendings>
                        prvAddTaskToReadyList( pxTCB );
    80000a14:	4e85                	li	t4,1
    80000a16:	a049                	j	80000a98 <xTaskResumeAll.part.0+0xe6>
                        listREMOVE_ITEM( &( pxTCB->xEventListItem ) );
    80000a18:	6314                	ld	a3,0(a4)
    80000a1a:	0407b823          	sd	zero,80(a5)
    80000a1e:	16fd                	addi	a3,a3,-1
    80000a20:	e314                	sd	a3,0(a4)
                        listREMOVE_ITEM( &( pxTCB->xStateListItem ) );
    80000a22:	778c                	ld	a1,40(a5)
    80000a24:	6b94                	ld	a3,16(a5)
    80000a26:	6f98                	ld	a4,24(a5)
    80000a28:	6590                	ld	a2,8(a1)
                        prvAddTaskToReadyList( pxTCB );
    80000a2a:	000e3283          	ld	t0,0(t3)
                        listREMOVE_ITEM( &( pxTCB->xStateListItem ) );
    80000a2e:	ea98                	sd	a4,16(a3)
    80000a30:	00878813          	addi	a6,a5,8
    80000a34:	e714                	sd	a3,8(a4)
    80000a36:	0b060963          	beq	a2,a6,80000ae8 <xTaskResumeAll.part.0+0x136>
                        prvAddTaskToReadyList( pxTCB );
    80000a3a:	6fb4                	ld	a3,88(a5)
                        listREMOVE_ITEM( &( pxTCB->xStateListItem ) );
    80000a3c:	0005b883          	ld	a7,0(a1)
                        prvAddTaskToReadyList( pxTCB );
    80000a40:	00269713          	slli	a4,a3,0x2
    80000a44:	9736                	add	a4,a4,a3
    80000a46:	070e                	slli	a4,a4,0x3
    80000a48:	00e30533          	add	a0,t1,a4
    80000a4c:	6d30                	ld	a2,88(a0)
                        listREMOVE_ITEM( &( pxTCB->xStateListItem ) );
    80000a4e:	18fd                	addi	a7,a7,-1
    80000a50:	0115b023          	sd	a7,0(a1)
                        prvAddTaskToReadyList( pxTCB );
    80000a54:	01063883          	ld	a7,16(a2)
    80000a58:	00de95b3          	sll	a1,t4,a3
    80000a5c:	0055e5b3          	or	a1,a1,t0
    80000a60:	0117bc23          	sd	a7,24(a5)
    80000a64:	01063283          	ld	t0,16(a2)
    80000a68:	00be3023          	sd	a1,0(t3)
                            if( pxTCB->uxPriority > pxCurrentTCB->uxPriority )
    80000a6c:	000f3883          	ld	a7,0(t5)
                        prvAddTaskToReadyList( pxTCB );
    80000a70:	692c                	ld	a1,80(a0)
    80000a72:	eb90                	sd	a2,16(a5)
    80000a74:	0102b423          	sd	a6,8(t0)
    80000a78:	01063823          	sd	a6,16(a2)
    80000a7c:	977e                	add	a4,a4,t6
                            if( pxTCB->uxPriority > pxCurrentTCB->uxPriority )
    80000a7e:	0588b603          	ld	a2,88(a7)
                        prvAddTaskToReadyList( pxTCB );
    80000a82:	f798                	sd	a4,40(a5)
    80000a84:	00158793          	addi	a5,a1,1
    80000a88:	e93c                	sd	a5,80(a0)
                            if( pxTCB->uxPriority > pxCurrentTCB->uxPriority )
    80000a8a:	00d67463          	bgeu	a2,a3,80000a92 <xTaskResumeAll.part.0+0xe0>
                                xYieldPendings[ xCoreID ] = pdTRUE;
    80000a8e:	01d4b023          	sd	t4,0(s1)
                    while( listLIST_IS_EMPTY( &xPendingReadyList ) == pdFALSE )
    80000a92:	11833783          	ld	a5,280(t1)
    80000a96:	cbb9                	beqz	a5,80000aec <xTaskResumeAll.part.0+0x13a>
                        pxTCB = listGET_OWNER_OF_HEAD_ENTRY( ( &xPendingReadyList ) );
    80000a98:	13033783          	ld	a5,304(t1)
    80000a9c:	6f9c                	ld	a5,24(a5)
                        listREMOVE_ITEM( &( pxTCB->xEventListItem ) );
    80000a9e:	6bb8                	ld	a4,80(a5)
    80000aa0:	7f90                	ld	a2,56(a5)
    80000aa2:	63b4                	ld	a3,64(a5)
    80000aa4:	6708                	ld	a0,8(a4)
    80000aa6:	03078593          	addi	a1,a5,48
    80000aaa:	ea14                	sd	a3,16(a2)
    80000aac:	e690                	sd	a2,8(a3)
    80000aae:	f6b515e3          	bne	a0,a1,80000a18 <xTaskResumeAll.part.0+0x66>
    80000ab2:	e714                	sd	a3,8(a4)
    80000ab4:	b795                	j	80000a18 <xTaskResumeAll.part.0+0x66>
                            xPendedTicks = 0;
    80000ab6:	00017797          	auipc	a5,0x17
    80000aba:	0407bd23          	sd	zero,90(a5) # 80017b10 <xPendedTicks>
                    if( xYieldPendings[ xCoreID ] != pdFALSE )
    80000abe:	609c                	ld	a5,0(s1)
    80000ac0:	e3c1                	bnez	a5,80000b40 <xTaskResumeAll.part.0+0x18e>
    BaseType_t xAlreadyYielded = pdFALSE;
    80000ac2:	4501                	li	a0,0
        taskEXIT_CRITICAL();
    80000ac4:	00006717          	auipc	a4,0x6
    80000ac8:	d9c70713          	addi	a4,a4,-612 # 80006860 <xCriticalNesting>
    80000acc:	631c                	ld	a5,0(a4)
    80000ace:	17fd                	addi	a5,a5,-1
    80000ad0:	e31c                	sd	a5,0(a4)
    80000ad2:	e399                	bnez	a5,80000ad8 <xTaskResumeAll.part.0+0x126>
    80000ad4:	30046073          	csrsi	mstatus,8
}
    80000ad8:	70a2                	ld	ra,40(sp)
    80000ada:	7402                	ld	s0,32(sp)
    80000adc:	64e2                	ld	s1,24(sp)
    80000ade:	6942                	ld	s2,16(sp)
    80000ae0:	69a2                	ld	s3,8(sp)
    80000ae2:	6a02                	ld	s4,0(sp)
    80000ae4:	6145                	addi	sp,sp,48
    80000ae6:	8082                	ret
                        listREMOVE_ITEM( &( pxTCB->xStateListItem ) );
    80000ae8:	e598                	sd	a4,8(a1)
    80000aea:	bf81                	j	80000a3a <xTaskResumeAll.part.0+0x88>
    if( listLIST_IS_EMPTY( pxDelayedTaskList ) != pdFALSE )
    80000aec:	00017797          	auipc	a5,0x17
    80000af0:	05c78793          	addi	a5,a5,92 # 80017b48 <pxDelayedTaskList>
    80000af4:	6398                	ld	a4,0(a5)
    80000af6:	6318                	ld	a4,0(a4)
    80000af8:	cf21                	beqz	a4,80000b50 <xTaskResumeAll.part.0+0x19e>
        xNextTaskUnblockTime = listGET_ITEM_VALUE_OF_HEAD_ENTRY( pxDelayedTaskList );
    80000afa:	639c                	ld	a5,0(a5)
    80000afc:	6f9c                	ld	a5,24(a5)
    80000afe:	639c                	ld	a5,0(a5)
    80000b00:	00017717          	auipc	a4,0x17
    80000b04:	fef73823          	sd	a5,-16(a4) # 80017af0 <xNextTaskUnblockTime>
                        TickType_t xPendedCounts = xPendedTicks; /* Non-volatile copy. */
    80000b08:	00017997          	auipc	s3,0x17
    80000b0c:	00898993          	addi	s3,s3,8 # 80017b10 <xPendedTicks>
    80000b10:	0009b903          	ld	s2,0(s3)
                        if( xPendedCounts > ( TickType_t ) 0U )
    80000b14:	fa0905e3          	beqz	s2,80000abe <xTaskResumeAll.part.0+0x10c>
                                    xYieldPendings[ xCoreID ] = pdTRUE;
    80000b18:	4a05                	li	s4,1
    80000b1a:	a819                	j	80000b30 <xTaskResumeAll.part.0+0x17e>
    80000b1c:	00000097          	auipc	ra,0x0
    80000b20:	cd8080e7          	jalr	-808(ra) # 800007f4 <xTaskIncrementTick.part.0>
                                if( xTaskIncrementTick() != pdFALSE )
    80000b24:	c119                	beqz	a0,80000b2a <xTaskResumeAll.part.0+0x178>
                                    xYieldPendings[ xCoreID ] = pdTRUE;
    80000b26:	0144b023          	sd	s4,0(s1)
                                --xPendedCounts;
    80000b2a:	197d                	addi	s2,s2,-1
                            } while( xPendedCounts > ( TickType_t ) 0U );
    80000b2c:	f80905e3          	beqz	s2,80000ab6 <xTaskResumeAll.part.0+0x104>
    if( uxSchedulerSuspended == ( UBaseType_t ) 0U )
    80000b30:	601c                	ld	a5,0(s0)
    80000b32:	d7ed                	beqz	a5,80000b1c <xTaskResumeAll.part.0+0x16a>
        xPendedTicks += 1U;
    80000b34:	0009b783          	ld	a5,0(s3)
    80000b38:	0785                	addi	a5,a5,1
    80000b3a:	00f9b023          	sd	a5,0(s3)
    return xSwitchRequired;
    80000b3e:	b7f5                	j	80000b2a <xTaskResumeAll.part.0+0x178>
                            taskYIELD_TASK_CORE_IF_USING_PREEMPTION( pxCurrentTCB );
    80000b40:	00017797          	auipc	a5,0x17
    80000b44:	0107b783          	ld	a5,16(a5) # 80017b50 <pxCurrentTCB>
    80000b48:	00000073          	ecall
                            xAlreadyYielded = pdTRUE;
    80000b4c:	4505                	li	a0,1
    80000b4e:	bf9d                	j	80000ac4 <xTaskResumeAll.part.0+0x112>
        xNextTaskUnblockTime = portMAX_DELAY;
    80000b50:	57fd                	li	a5,-1
    80000b52:	00017717          	auipc	a4,0x17
    80000b56:	f8f73f23          	sd	a5,-98(a4) # 80017af0 <xNextTaskUnblockTime>
    80000b5a:	b77d                	j	80000b08 <xTaskResumeAll.part.0+0x156>

0000000080000b5c <xTaskCreate>:
    {
    80000b5c:	711d                	addi	sp,sp,-96
    80000b5e:	e862                	sd	s8,16(sp)
            pxStack = ( StackType_t * ) pvPortMallocStack( ( ( ( size_t ) uxStackDepth ) * sizeof( StackType_t ) ) );
    80000b60:	00361c13          	slli	s8,a2,0x3
    {
    80000b64:	f456                	sd	s5,40(sp)
    80000b66:	8aaa                	mv	s5,a0
            pxStack = ( StackType_t * ) pvPortMallocStack( ( ( ( size_t ) uxStackDepth ) * sizeof( StackType_t ) ) );
    80000b68:	8562                	mv	a0,s8
    {
    80000b6a:	e8a2                	sd	s0,80(sp)
    80000b6c:	fc4e                	sd	s3,56(sp)
    80000b6e:	f852                	sd	s4,48(sp)
    80000b70:	f05a                	sd	s6,32(sp)
    80000b72:	ec5e                	sd	s7,24(sp)
    80000b74:	ec86                	sd	ra,88(sp)
    80000b76:	e4a6                	sd	s1,72(sp)
    80000b78:	e0ca                	sd	s2,64(sp)
    80000b7a:	e466                	sd	s9,8(sp)
    80000b7c:	89b2                	mv	s3,a2
    80000b7e:	842e                	mv	s0,a1
    80000b80:	8b36                	mv	s6,a3
    80000b82:	8a3a                	mv	s4,a4
    80000b84:	8bbe                	mv	s7,a5
            pxStack = ( StackType_t * ) pvPortMallocStack( ( ( ( size_t ) uxStackDepth ) * sizeof( StackType_t ) ) );
    80000b86:	00004097          	auipc	ra,0x4
    80000b8a:	e44080e7          	jalr	-444(ra) # 800049ca <pvPortMalloc>
            if( pxStack != NULL )
    80000b8e:	c939                	beqz	a0,80000be4 <xTaskCreate+0x88>
    80000b90:	892a                	mv	s2,a0
                pxNewTCB = ( TCB_t * ) pvPortMalloc( sizeof( TCB_t ) );
    80000b92:	09000513          	li	a0,144
    80000b96:	00004097          	auipc	ra,0x4
    80000b9a:	e34080e7          	jalr	-460(ra) # 800049ca <pvPortMalloc>
    80000b9e:	84aa                	mv	s1,a0
                if( pxNewTCB != NULL )
    80000ba0:	c125                	beqz	a0,80000c00 <xTaskCreate+0xa4>
   case no work is done at all.  We detect these problems by referring
   non-existing functions.  */
__fortify_function void *
__NTH (memset (void *__dest, int __ch, size_t __len))
{
  return __builtin___memset_chk (__dest, __ch, __len,
    80000ba2:	09000613          	li	a2,144
    80000ba6:	4581                	li	a1,0
    80000ba8:	00005097          	auipc	ra,0x5
    80000bac:	c04080e7          	jalr	-1020(ra) # 800057ac <memset>
                    pxNewTCB->pxStack = pxStack;
    80000bb0:	0724b023          	sd	s2,96(s1)
    if( pcName != NULL )
    80000bb4:	c015                	beqz	s0,80000bd8 <xTaskCreate+0x7c>
    80000bb6:	85a2                	mv	a1,s0
    80000bb8:	06848813          	addi	a6,s1,104
    80000bbc:	01040793          	addi	a5,s0,16
            pxNewTCB->pcTaskName[ x ] = pcName[ x ];
    80000bc0:	0005c883          	lbu	a7,0(a1)
        for( x = ( UBaseType_t ) 0; x < ( UBaseType_t ) configMAX_TASK_NAME_LEN; x++ )
    80000bc4:	0805                	addi	a6,a6,1
    80000bc6:	0585                	addi	a1,a1,1
            pxNewTCB->pcTaskName[ x ] = pcName[ x ];
    80000bc8:	ff180fa3          	sb	a7,-1(a6)
            if( pcName[ x ] == ( char ) 0x00 )
    80000bcc:	00088463          	beqz	a7,80000bd4 <xTaskCreate+0x78>
        for( x = ( UBaseType_t ) 0; x < ( UBaseType_t ) configMAX_TASK_NAME_LEN; x++ )
    80000bd0:	feb798e3          	bne	a5,a1,80000bc0 <xTaskCreate+0x64>
        pxNewTCB->pcTaskName[ configMAX_TASK_NAME_LEN - 1U ] = '\0';
    80000bd4:	06048ba3          	sb	zero,119(s1)
    configASSERT( uxPriority < configMAX_PRIORITIES );
    80000bd8:	4791                	li	a5,4
    80000bda:	0347fa63          	bgeu	a5,s4,80000c0e <xTaskCreate+0xb2>
    80000bde:	30047073          	csrci	mstatus,8
    80000be2:	a001                	j	80000be2 <xTaskCreate+0x86>
            xReturn = errCOULD_NOT_ALLOCATE_REQUIRED_MEMORY;
    80000be4:	557d                	li	a0,-1
    }
    80000be6:	60e6                	ld	ra,88(sp)
    80000be8:	6446                	ld	s0,80(sp)
    80000bea:	64a6                	ld	s1,72(sp)
    80000bec:	6906                	ld	s2,64(sp)
    80000bee:	79e2                	ld	s3,56(sp)
    80000bf0:	7a42                	ld	s4,48(sp)
    80000bf2:	7aa2                	ld	s5,40(sp)
    80000bf4:	7b02                	ld	s6,32(sp)
    80000bf6:	6be2                	ld	s7,24(sp)
    80000bf8:	6c42                	ld	s8,16(sp)
    80000bfa:	6ca2                	ld	s9,8(sp)
    80000bfc:	6125                	addi	sp,sp,96
    80000bfe:	8082                	ret
                    vPortFreeStack( pxStack );
    80000c00:	854a                	mv	a0,s2
    80000c02:	00004097          	auipc	ra,0x4
    80000c06:	f7e080e7          	jalr	-130(ra) # 80004b80 <vPortFree>
            xReturn = errCOULD_NOT_ALLOCATE_REQUIRED_MEMORY;
    80000c0a:	557d                	li	a0,-1
    80000c0c:	bfe9                	j	80000be6 <xTaskCreate+0x8a>
    vListInitialiseItem( &( pxNewTCB->xStateListItem ) );
    80000c0e:	00848c93          	addi	s9,s1,8
    80000c12:	8566                	mv	a0,s9
    pxNewTCB->uxPriority = uxPriority;
    80000c14:	0544bc23          	sd	s4,88(s1)
        pxNewTCB->uxBasePriority = uxPriority;
    80000c18:	0744bc23          	sd	s4,120(s1)
    vListInitialiseItem( &( pxNewTCB->xStateListItem ) );
    80000c1c:	00002097          	auipc	ra,0x2
    80000c20:	9c8080e7          	jalr	-1592(ra) # 800025e4 <vListInitialiseItem>
    vListInitialiseItem( &( pxNewTCB->xEventListItem ) );
    80000c24:	03048513          	addi	a0,s1,48
    80000c28:	00002097          	auipc	ra,0x2
    80000c2c:	9bc080e7          	jalr	-1604(ra) # 800025e4 <vListInitialiseItem>
        pxTopOfStack = &( pxNewTCB->pxStack[ uxStackDepth - ( configSTACK_DEPTH_TYPE ) 1 ] );
    80000c30:	1c61                	addi	s8,s8,-8
    80000c32:	01890433          	add	s0,s2,s8
    listSET_LIST_ITEM_VALUE( &( pxNewTCB->xEventListItem ), ( TickType_t ) configMAX_PRIORITIES - ( TickType_t ) uxPriority );
    80000c36:	4795                	li	a5,5
    80000c38:	414787b3          	sub	a5,a5,s4
        pxTopOfStack = ( StackType_t * ) ( ( ( portPOINTER_SIZE_TYPE ) pxTopOfStack ) & ( ~( ( portPOINTER_SIZE_TYPE ) portBYTE_ALIGNMENT_MASK ) ) );
    80000c3c:	9841                	andi	s0,s0,-16
    listSET_LIST_ITEM_VALUE( &( pxNewTCB->xEventListItem ), ( TickType_t ) configMAX_PRIORITIES - ( TickType_t ) uxPriority );
    80000c3e:	f89c                	sd	a5,48(s1)
    listSET_LIST_ITEM_OWNER( &( pxNewTCB->xStateListItem ), pxNewTCB );
    80000c40:	f084                	sd	s1,32(s1)
    listSET_LIST_ITEM_OWNER( &( pxNewTCB->xEventListItem ), pxNewTCB );
    80000c42:	e4a4                	sd	s1,72(s1)
            pxNewTCB->pxTopOfStack = pxPortInitialiseStack( pxTopOfStack, pxTaskCode, pvParameters );
    80000c44:	865a                	mv	a2,s6
    80000c46:	85d6                	mv	a1,s5
    80000c48:	8522                	mv	a0,s0
    80000c4a:	00004097          	auipc	ra,0x4
    80000c4e:	184080e7          	jalr	388(ra) # 80004dce <pxPortInitialiseStack>
            configASSERT( ( ( portPOINTER_SIZE_TYPE ) ( pxTopOfStack - pxNewTCB->pxTopOfStack ) ) < ( ( portPOINTER_SIZE_TYPE ) uxStackDepth ) );
    80000c52:	40a407b3          	sub	a5,s0,a0
            pxNewTCB->pxTopOfStack = pxPortInitialiseStack( pxTopOfStack, pxTaskCode, pvParameters );
    80000c56:	e088                	sd	a0,0(s1)
            configASSERT( ( ( portPOINTER_SIZE_TYPE ) ( pxTopOfStack - pxNewTCB->pxTopOfStack ) ) < ( ( portPOINTER_SIZE_TYPE ) uxStackDepth ) );
    80000c58:	878d                	srai	a5,a5,0x3
    80000c5a:	0137e563          	bltu	a5,s3,80000c64 <xTaskCreate+0x108>
    80000c5e:	30047073          	csrci	mstatus,8
    80000c62:	a001                	j	80000c62 <xTaskCreate+0x106>
    if( pxCreatedTask != NULL )
    80000c64:	000b8463          	beqz	s7,80000c6c <xTaskCreate+0x110>
        *pxCreatedTask = ( TaskHandle_t ) pxNewTCB;
    80000c68:	009bb023          	sd	s1,0(s7)
        taskENTER_CRITICAL();
    80000c6c:	30047073          	csrci	mstatus,8
            uxCurrentNumberOfTasks = ( UBaseType_t ) ( uxCurrentNumberOfTasks + 1U );
    80000c70:	00017717          	auipc	a4,0x17
    80000c74:	ec070713          	addi	a4,a4,-320 # 80017b30 <uxCurrentNumberOfTasks>
    80000c78:	631c                	ld	a5,0(a4)
        taskENTER_CRITICAL();
    80000c7a:	00006417          	auipc	s0,0x6
    80000c7e:	be640413          	addi	s0,s0,-1050 # 80006860 <xCriticalNesting>
    80000c82:	6010                	ld	a2,0(s0)
            uxCurrentNumberOfTasks = ( UBaseType_t ) ( uxCurrentNumberOfTasks + 1U );
    80000c84:	0785                	addi	a5,a5,1
    80000c86:	e31c                	sd	a5,0(a4)
            if( pxCurrentTCB == NULL )
    80000c88:	00017997          	auipc	s3,0x17
    80000c8c:	ec898993          	addi	s3,s3,-312 # 80017b50 <pxCurrentTCB>
    80000c90:	0009b783          	ld	a5,0(s3)
        taskENTER_CRITICAL();
    80000c94:	00160693          	addi	a3,a2,1
    80000c98:	e014                	sd	a3,0(s0)
            if( pxCurrentTCB == NULL )
    80000c9a:	c7dd                	beqz	a5,80000d48 <xTaskCreate+0x1ec>
                if( xSchedulerRunning == pdFALSE )
    80000c9c:	00017e17          	auipc	t3,0x17
    80000ca0:	e7ce0e13          	addi	t3,t3,-388 # 80017b18 <xSchedulerRunning>
    80000ca4:	000e3783          	ld	a5,0(t3)
                    if( pxCurrentTCB->uxPriority <= pxNewTCB->uxPriority )
    80000ca8:	6cac                	ld	a1,88(s1)
    80000caa:	00006917          	auipc	s2,0x6
    80000cae:	c1690913          	addi	s2,s2,-1002 # 800068c0 <pxReadyTasksLists>
                if( xSchedulerRunning == pdFALSE )
    80000cb2:	eb81                	bnez	a5,80000cc2 <xTaskCreate+0x166>
                    if( pxCurrentTCB->uxPriority <= pxNewTCB->uxPriority )
    80000cb4:	0009b783          	ld	a5,0(s3)
    80000cb8:	6fbc                	ld	a5,88(a5)
    80000cba:	00f5e463          	bltu	a1,a5,80000cc2 <xTaskCreate+0x166>
                        pxCurrentTCB = pxNewTCB;
    80000cbe:	0099b023          	sd	s1,0(s3)
            prvAddTaskToReadyList( pxNewTCB );
    80000cc2:	00259793          	slli	a5,a1,0x2
    80000cc6:	97ae                	add	a5,a5,a1
    80000cc8:	078e                	slli	a5,a5,0x3
    80000cca:	00006717          	auipc	a4,0x6
    80000cce:	ba670713          	addi	a4,a4,-1114 # 80006870 <xSuspendedTaskList>
    80000cd2:	973e                	add	a4,a4,a5
    80000cd4:	6f34                	ld	a3,88(a4)
            uxTaskNumber++;
    80000cd6:	00017317          	auipc	t1,0x17
    80000cda:	e2230313          	addi	t1,t1,-478 # 80017af8 <uxTaskNumber>
            prvAddTaskToReadyList( pxNewTCB );
    80000cde:	00017897          	auipc	a7,0x17
    80000ce2:	e4288893          	addi	a7,a7,-446 # 80017b20 <uxTopReadyPriority>
    80000ce6:	6a88                	ld	a0,16(a3)
    80000ce8:	e894                	sd	a3,16(s1)
            uxTaskNumber++;
    80000cea:	00033803          	ld	a6,0(t1)
            prvAddTaskToReadyList( pxNewTCB );
    80000cee:	ec88                	sd	a0,24(s1)
    80000cf0:	0106bf03          	ld	t5,16(a3)
    80000cf4:	6b28                	ld	a0,80(a4)
    80000cf6:	0008be83          	ld	t4,0(a7)
    80000cfa:	019f3423          	sd	s9,8(t5)
    80000cfe:	0196b823          	sd	s9,16(a3)
    80000d02:	4685                	li	a3,1
    80000d04:	00b696b3          	sll	a3,a3,a1
    80000d08:	993e                	add	s2,s2,a5
            uxTaskNumber++;
    80000d0a:	00180593          	addi	a1,a6,1
            prvAddTaskToReadyList( pxNewTCB );
    80000d0e:	01d6e7b3          	or	a5,a3,t4
    80000d12:	0324b423          	sd	s2,40(s1)
    80000d16:	00150693          	addi	a3,a0,1
            uxTaskNumber++;
    80000d1a:	00b33023          	sd	a1,0(t1)
            prvAddTaskToReadyList( pxNewTCB );
    80000d1e:	00f8b023          	sd	a5,0(a7)
    80000d22:	eb34                	sd	a3,80(a4)
        taskEXIT_CRITICAL();
    80000d24:	e010                	sd	a2,0(s0)
    80000d26:	e219                	bnez	a2,80000d2c <xTaskCreate+0x1d0>
    80000d28:	30046073          	csrsi	mstatus,8
        if( xSchedulerRunning != pdFALSE )
    80000d2c:	000e3783          	ld	a5,0(t3)
            xReturn = pdPASS;
    80000d30:	4505                	li	a0,1
        if( xSchedulerRunning != pdFALSE )
    80000d32:	ea078ae3          	beqz	a5,80000be6 <xTaskCreate+0x8a>
            taskYIELD_ANY_CORE_IF_USING_PREEMPTION( pxNewTCB );
    80000d36:	0009b703          	ld	a4,0(s3)
    80000d3a:	6cbc                	ld	a5,88(s1)
    80000d3c:	6f38                	ld	a4,88(a4)
    80000d3e:	eaf774e3          	bgeu	a4,a5,80000be6 <xTaskCreate+0x8a>
    80000d42:	00000073          	ecall
    80000d46:	b545                	j	80000be6 <xTaskCreate+0x8a>
                pxCurrentTCB = pxNewTCB;
    80000d48:	0099b023          	sd	s1,0(s3)
                if( uxCurrentNumberOfTasks == ( UBaseType_t ) 1 )
    80000d4c:	6318                	ld	a4,0(a4)
    80000d4e:	4785                	li	a5,1
    80000d50:	00f70c63          	beq	a4,a5,80000d68 <xTaskCreate+0x20c>
                    if( pxCurrentTCB->uxPriority <= pxNewTCB->uxPriority )
    80000d54:	6cac                	ld	a1,88(s1)
    80000d56:	00006917          	auipc	s2,0x6
    80000d5a:	b6a90913          	addi	s2,s2,-1174 # 800068c0 <pxReadyTasksLists>
    80000d5e:	00017e17          	auipc	t3,0x17
    80000d62:	dbae0e13          	addi	t3,t3,-582 # 80017b18 <xSchedulerRunning>
    80000d66:	bfb1                	j	80000cc2 <xTaskCreate+0x166>
    80000d68:	00006917          	auipc	s2,0x6
    80000d6c:	b5890913          	addi	s2,s2,-1192 # 800068c0 <pxReadyTasksLists>
    80000d70:	8a4a                	mv	s4,s2
    80000d72:	00006a97          	auipc	s5,0x6
    80000d76:	c16a8a93          	addi	s5,s5,-1002 # 80006988 <xPendingReadyList>
        vListInitialise( &( pxReadyTasksLists[ uxPriority ] ) );
    80000d7a:	8552                	mv	a0,s4
    for( uxPriority = ( UBaseType_t ) 0U; uxPriority < ( UBaseType_t ) configMAX_PRIORITIES; uxPriority++ )
    80000d7c:	028a0a13          	addi	s4,s4,40
        vListInitialise( &( pxReadyTasksLists[ uxPriority ] ) );
    80000d80:	00002097          	auipc	ra,0x2
    80000d84:	850080e7          	jalr	-1968(ra) # 800025d0 <vListInitialise>
    for( uxPriority = ( UBaseType_t ) 0U; uxPriority < ( UBaseType_t ) configMAX_PRIORITIES; uxPriority++ )
    80000d88:	ff4a99e3          	bne	s5,s4,80000d7a <xTaskCreate+0x21e>
    vListInitialise( &xDelayedTaskList1 );
    80000d8c:	00006a97          	auipc	s5,0x6
    80000d90:	c24a8a93          	addi	s5,s5,-988 # 800069b0 <xDelayedTaskList1>
    80000d94:	8556                	mv	a0,s5
    80000d96:	00002097          	auipc	ra,0x2
    80000d9a:	83a080e7          	jalr	-1990(ra) # 800025d0 <vListInitialise>
    vListInitialise( &xDelayedTaskList2 );
    80000d9e:	00006a17          	auipc	s4,0x6
    80000da2:	c3aa0a13          	addi	s4,s4,-966 # 800069d8 <xDelayedTaskList2>
    80000da6:	8552                	mv	a0,s4
    80000da8:	00002097          	auipc	ra,0x2
    80000dac:	828080e7          	jalr	-2008(ra) # 800025d0 <vListInitialise>
    vListInitialise( &xPendingReadyList );
    80000db0:	00006517          	auipc	a0,0x6
    80000db4:	bd850513          	addi	a0,a0,-1064 # 80006988 <xPendingReadyList>
    80000db8:	00002097          	auipc	ra,0x2
    80000dbc:	818080e7          	jalr	-2024(ra) # 800025d0 <vListInitialise>
        vListInitialise( &xTasksWaitingTermination );
    80000dc0:	00006517          	auipc	a0,0x6
    80000dc4:	ad850513          	addi	a0,a0,-1320 # 80006898 <xTasksWaitingTermination>
    80000dc8:	00002097          	auipc	ra,0x2
    80000dcc:	808080e7          	jalr	-2040(ra) # 800025d0 <vListInitialise>
        vListInitialise( &xSuspendedTaskList );
    80000dd0:	00006517          	auipc	a0,0x6
    80000dd4:	aa050513          	addi	a0,a0,-1376 # 80006870 <xSuspendedTaskList>
    80000dd8:	00001097          	auipc	ra,0x1
    80000ddc:	7f8080e7          	jalr	2040(ra) # 800025d0 <vListInitialise>
        taskEXIT_CRITICAL();
    80000de0:	6010                	ld	a2,0(s0)
    pxDelayedTaskList = &xDelayedTaskList1;
    80000de2:	00017797          	auipc	a5,0x17
    80000de6:	d757b323          	sd	s5,-666(a5) # 80017b48 <pxDelayedTaskList>
            prvAddTaskToReadyList( pxNewTCB );
    80000dea:	6cac                	ld	a1,88(s1)
    pxOverflowDelayedTaskList = &xDelayedTaskList2;
    80000dec:	00017797          	auipc	a5,0x17
    80000df0:	d547ba23          	sd	s4,-684(a5) # 80017b40 <pxOverflowDelayedTaskList>
        taskEXIT_CRITICAL();
    80000df4:	167d                	addi	a2,a2,-1
    80000df6:	00017e17          	auipc	t3,0x17
    80000dfa:	d22e0e13          	addi	t3,t3,-734 # 80017b18 <xSchedulerRunning>
}
    80000dfe:	b5d1                	j	80000cc2 <xTaskCreate+0x166>

0000000080000e00 <vTaskDelete>:
    {
    80000e00:	7179                	addi	sp,sp,-48
    80000e02:	f406                	sd	ra,40(sp)
    80000e04:	f022                	sd	s0,32(sp)
    80000e06:	ec26                	sd	s1,24(sp)
    80000e08:	e84a                	sd	s2,16(sp)
    80000e0a:	e44e                	sd	s3,8(sp)
    80000e0c:	e052                	sd	s4,0(sp)
        taskENTER_CRITICAL();
    80000e0e:	30047073          	csrci	mstatus,8
    80000e12:	00006497          	auipc	s1,0x6
    80000e16:	a4e48493          	addi	s1,s1,-1458 # 80006860 <xCriticalNesting>
    80000e1a:	609c                	ld	a5,0(s1)
    80000e1c:	00017917          	auipc	s2,0x17
    80000e20:	d3490913          	addi	s2,s2,-716 # 80017b50 <pxCurrentTCB>
    80000e24:	842a                	mv	s0,a0
    80000e26:	0785                	addi	a5,a5,1
    80000e28:	e09c                	sd	a5,0(s1)
            pxTCB = prvGetTCBFromHandle( xTaskToDelete );
    80000e2a:	cd61                	beqz	a0,80000f02 <vTaskDelete+0x102>
            if( uxListRemove( &( pxTCB->xStateListItem ) ) == ( UBaseType_t ) 0 )
    80000e2c:	00840a13          	addi	s4,s0,8
    80000e30:	8552                	mv	a0,s4
    80000e32:	00001097          	auipc	ra,0x1
    80000e36:	7fe080e7          	jalr	2046(ra) # 80002630 <uxListRemove>
    80000e3a:	e90d                	bnez	a0,80000e6c <vTaskDelete+0x6c>
                taskRESET_READY_PRIORITY( pxTCB->uxPriority );
    80000e3c:	6c34                	ld	a3,88(s0)
    80000e3e:	00006717          	auipc	a4,0x6
    80000e42:	a3270713          	addi	a4,a4,-1486 # 80006870 <xSuspendedTaskList>
    80000e46:	00269793          	slli	a5,a3,0x2
    80000e4a:	97b6                	add	a5,a5,a3
    80000e4c:	078e                	slli	a5,a5,0x3
    80000e4e:	97ba                	add	a5,a5,a4
    80000e50:	6bbc                	ld	a5,80(a5)
    80000e52:	ef89                	bnez	a5,80000e6c <vTaskDelete+0x6c>
    80000e54:	00017717          	auipc	a4,0x17
    80000e58:	ccc70713          	addi	a4,a4,-820 # 80017b20 <uxTopReadyPriority>
    80000e5c:	6310                	ld	a2,0(a4)
    80000e5e:	4785                	li	a5,1
    80000e60:	00d797b3          	sll	a5,a5,a3
    80000e64:	fff7c793          	not	a5,a5
    80000e68:	8ff1                	and	a5,a5,a2
    80000e6a:	e31c                	sd	a5,0(a4)
            if( listLIST_ITEM_CONTAINER( &( pxTCB->xEventListItem ) ) != NULL )
    80000e6c:	683c                	ld	a5,80(s0)
    80000e6e:	c799                	beqz	a5,80000e7c <vTaskDelete+0x7c>
                ( void ) uxListRemove( &( pxTCB->xEventListItem ) );
    80000e70:	03040513          	addi	a0,s0,48
    80000e74:	00001097          	auipc	ra,0x1
    80000e78:	7bc080e7          	jalr	1980(ra) # 80002630 <uxListRemove>
            uxTaskNumber++;
    80000e7c:	00017717          	auipc	a4,0x17
    80000e80:	c7c70713          	addi	a4,a4,-900 # 80017af8 <uxTaskNumber>
    80000e84:	631c                	ld	a5,0(a4)
            xTaskIsRunningOrYielding = taskTASK_IS_RUNNING_OR_SCHEDULED_TO_YIELD( pxTCB );
    80000e86:	00093683          	ld	a3,0(s2)
            if( ( xSchedulerRunning != pdFALSE ) && ( xTaskIsRunningOrYielding != pdFALSE ) )
    80000e8a:	00017997          	auipc	s3,0x17
    80000e8e:	c8e98993          	addi	s3,s3,-882 # 80017b18 <xSchedulerRunning>
            uxTaskNumber++;
    80000e92:	0785                	addi	a5,a5,1
    80000e94:	e31c                	sd	a5,0(a4)
            if( ( xSchedulerRunning != pdFALSE ) && ( xTaskIsRunningOrYielding != pdFALSE ) )
    80000e96:	0009b783          	ld	a5,0(s3)
            xTaskIsRunningOrYielding = taskTASK_IS_RUNNING_OR_SCHEDULED_TO_YIELD( pxTCB );
    80000e9a:	08868263          	beq	a3,s0,80000f1e <vTaskDelete+0x11e>
                --uxCurrentNumberOfTasks;
    80000e9e:	00017717          	auipc	a4,0x17
    80000ea2:	c9270713          	addi	a4,a4,-878 # 80017b30 <uxCurrentNumberOfTasks>
    80000ea6:	631c                	ld	a5,0(a4)
    if( listLIST_IS_EMPTY( pxDelayedTaskList ) != pdFALSE )
    80000ea8:	00017697          	auipc	a3,0x17
    80000eac:	ca068693          	addi	a3,a3,-864 # 80017b48 <pxDelayedTaskList>
                --uxCurrentNumberOfTasks;
    80000eb0:	17fd                	addi	a5,a5,-1
    80000eb2:	e31c                	sd	a5,0(a4)
    if( listLIST_IS_EMPTY( pxDelayedTaskList ) != pdFALSE )
    80000eb4:	629c                	ld	a5,0(a3)
    80000eb6:	639c                	ld	a5,0(a5)
    80000eb8:	ebb9                	bnez	a5,80000f0e <vTaskDelete+0x10e>
        xNextTaskUnblockTime = portMAX_DELAY;
    80000eba:	57fd                	li	a5,-1
    80000ebc:	00017717          	auipc	a4,0x17
    80000ec0:	c2f73a23          	sd	a5,-972(a4) # 80017af0 <xNextTaskUnblockTime>
        taskEXIT_CRITICAL();
    80000ec4:	609c                	ld	a5,0(s1)
    80000ec6:	17fd                	addi	a5,a5,-1
    80000ec8:	e09c                	sd	a5,0(s1)
    80000eca:	e399                	bnez	a5,80000ed0 <vTaskDelete+0xd0>
    80000ecc:	30046073          	csrsi	mstatus,8
            vPortFreeStack( pxTCB->pxStack );
    80000ed0:	7028                	ld	a0,96(s0)
    80000ed2:	00004097          	auipc	ra,0x4
    80000ed6:	cae080e7          	jalr	-850(ra) # 80004b80 <vPortFree>
            vPortFree( pxTCB );
    80000eda:	8522                	mv	a0,s0
    80000edc:	00004097          	auipc	ra,0x4
    80000ee0:	ca4080e7          	jalr	-860(ra) # 80004b80 <vPortFree>
            if( xSchedulerRunning != pdFALSE )
    80000ee4:	0009b783          	ld	a5,0(s3)
    80000ee8:	c789                	beqz	a5,80000ef2 <vTaskDelete+0xf2>
                if( pxTCB == pxCurrentTCB )
    80000eea:	00093783          	ld	a5,0(s2)
    80000eee:	06878063          	beq	a5,s0,80000f4e <vTaskDelete+0x14e>
    }
    80000ef2:	70a2                	ld	ra,40(sp)
    80000ef4:	7402                	ld	s0,32(sp)
    80000ef6:	64e2                	ld	s1,24(sp)
    80000ef8:	6942                	ld	s2,16(sp)
    80000efa:	69a2                	ld	s3,8(sp)
    80000efc:	6a02                	ld	s4,0(sp)
    80000efe:	6145                	addi	sp,sp,48
    80000f00:	8082                	ret
            pxTCB = prvGetTCBFromHandle( xTaskToDelete );
    80000f02:	00093403          	ld	s0,0(s2)
            configASSERT( pxTCB != NULL );
    80000f06:	f01d                	bnez	s0,80000e2c <vTaskDelete+0x2c>
    80000f08:	30047073          	csrci	mstatus,8
    80000f0c:	a001                	j	80000f0c <vTaskDelete+0x10c>
        xNextTaskUnblockTime = listGET_ITEM_VALUE_OF_HEAD_ENTRY( pxDelayedTaskList );
    80000f0e:	629c                	ld	a5,0(a3)
    80000f10:	6f9c                	ld	a5,24(a5)
    80000f12:	639c                	ld	a5,0(a5)
    80000f14:	00017717          	auipc	a4,0x17
    80000f18:	bcf73e23          	sd	a5,-1060(a4) # 80017af0 <xNextTaskUnblockTime>
}
    80000f1c:	b765                	j	80000ec4 <vTaskDelete+0xc4>
            if( ( xSchedulerRunning != pdFALSE ) && ( xTaskIsRunningOrYielding != pdFALSE ) )
    80000f1e:	d3c1                	beqz	a5,80000e9e <vTaskDelete+0x9e>
                vListInsertEnd( &xTasksWaitingTermination, &( pxTCB->xStateListItem ) );
    80000f20:	85d2                	mv	a1,s4
    80000f22:	00006517          	auipc	a0,0x6
    80000f26:	97650513          	addi	a0,a0,-1674 # 80006898 <xTasksWaitingTermination>
    80000f2a:	00001097          	auipc	ra,0x1
    80000f2e:	6c0080e7          	jalr	1728(ra) # 800025ea <vListInsertEnd>
                ++uxDeletedTasksWaitingCleanUp;
    80000f32:	00017697          	auipc	a3,0x17
    80000f36:	c0668693          	addi	a3,a3,-1018 # 80017b38 <uxDeletedTasksWaitingCleanUp>
    80000f3a:	6298                	ld	a4,0(a3)
        taskEXIT_CRITICAL();
    80000f3c:	609c                	ld	a5,0(s1)
                ++uxDeletedTasksWaitingCleanUp;
    80000f3e:	0705                	addi	a4,a4,1
        taskEXIT_CRITICAL();
    80000f40:	17fd                	addi	a5,a5,-1
                ++uxDeletedTasksWaitingCleanUp;
    80000f42:	e298                	sd	a4,0(a3)
        taskEXIT_CRITICAL();
    80000f44:	e09c                	sd	a5,0(s1)
    80000f46:	ffd9                	bnez	a5,80000ee4 <vTaskDelete+0xe4>
    80000f48:	30046073          	csrsi	mstatus,8
        if( xDeleteTCBInIdleTask != pdTRUE )
    80000f4c:	bf61                	j	80000ee4 <vTaskDelete+0xe4>
                    configASSERT( uxSchedulerSuspended == 0 );
    80000f4e:	00017797          	auipc	a5,0x17
    80000f52:	b927b783          	ld	a5,-1134(a5) # 80017ae0 <uxSchedulerSuspended>
    80000f56:	c781                	beqz	a5,80000f5e <vTaskDelete+0x15e>
    80000f58:	30047073          	csrci	mstatus,8
    80000f5c:	a001                	j	80000f5c <vTaskDelete+0x15c>
                    taskYIELD_WITHIN_API();
    80000f5e:	00000073          	ecall
    }
    80000f62:	bf41                	j	80000ef2 <vTaskDelete+0xf2>

0000000080000f64 <xTaskDelayUntil>:
        configASSERT( pxPreviousWakeTime );
    80000f64:	c91d                	beqz	a0,80000f9a <xTaskDelayUntil+0x36>
        configASSERT( ( xTimeIncrement > 0U ) );
    80000f66:	c59d                	beqz	a1,80000f94 <xTaskDelayUntil+0x30>
    {
    80000f68:	1101                	addi	sp,sp,-32
    80000f6a:	e822                	sd	s0,16(sp)
        uxSchedulerSuspended = ( UBaseType_t ) ( uxSchedulerSuspended + 1U );
    80000f6c:	00017417          	auipc	s0,0x17
    80000f70:	b7440413          	addi	s0,s0,-1164 # 80017ae0 <uxSchedulerSuspended>
    80000f74:	601c                	ld	a5,0(s0)
    {
    80000f76:	ec06                	sd	ra,24(sp)
    80000f78:	e426                	sd	s1,8(sp)
        uxSchedulerSuspended = ( UBaseType_t ) ( uxSchedulerSuspended + 1U );
    80000f7a:	0785                	addi	a5,a5,1
    80000f7c:	e01c                	sd	a5,0(s0)
            const TickType_t xConstTickCount = xTickCount;
    80000f7e:	00017697          	auipc	a3,0x17
    80000f82:	baa6b683          	ld	a3,-1110(a3) # 80017b28 <xTickCount>
            configASSERT( uxSchedulerSuspended == 1U );
    80000f86:	6018                	ld	a4,0(s0)
    80000f88:	4785                	li	a5,1
    80000f8a:	00f70b63          	beq	a4,a5,80000fa0 <xTaskDelayUntil+0x3c>
    80000f8e:	30047073          	csrci	mstatus,8
    80000f92:	a001                	j	80000f92 <xTaskDelayUntil+0x2e>
        configASSERT( ( xTimeIncrement > 0U ) );
    80000f94:	30047073          	csrci	mstatus,8
    80000f98:	a001                	j	80000f98 <xTaskDelayUntil+0x34>
        configASSERT( pxPreviousWakeTime );
    80000f9a:	30047073          	csrci	mstatus,8
    80000f9e:	a001                	j	80000f9e <xTaskDelayUntil+0x3a>
            xTimeToWake = *pxPreviousWakeTime + xTimeIncrement;
    80000fa0:	6118                	ld	a4,0(a0)
    80000fa2:	00b707b3          	add	a5,a4,a1
            if( xConstTickCount < *pxPreviousWakeTime )
    80000fa6:	02e6f463          	bgeu	a3,a4,80000fce <xTaskDelayUntil+0x6a>
                if( ( xTimeToWake < *pxPreviousWakeTime ) && ( xTimeToWake > xConstTickCount ) )
    80000faa:	02e7e463          	bltu	a5,a4,80000fd2 <xTaskDelayUntil+0x6e>
            *pxPreviousWakeTime = xTimeToWake;
    80000fae:	e11c                	sd	a5,0(a0)
        BaseType_t xAlreadyYielded, xShouldDelay = pdFALSE;
    80000fb0:	4481                	li	s1,0
        taskENTER_CRITICAL();
    80000fb2:	30047073          	csrci	mstatus,8
    80000fb6:	00006717          	auipc	a4,0x6
    80000fba:	8aa70713          	addi	a4,a4,-1878 # 80006860 <xCriticalNesting>
    80000fbe:	631c                	ld	a5,0(a4)
            configASSERT( uxSchedulerSuspended != 0U );
    80000fc0:	6014                	ld	a3,0(s0)
        taskENTER_CRITICAL();
    80000fc2:	0785                	addi	a5,a5,1
    80000fc4:	e31c                	sd	a5,0(a4)
            configASSERT( uxSchedulerSuspended != 0U );
    80000fc6:	e295                	bnez	a3,80000fea <xTaskDelayUntil+0x86>
    80000fc8:	30047073          	csrci	mstatus,8
    80000fcc:	a001                	j	80000fcc <xTaskDelayUntil+0x68>
                if( ( xTimeToWake < *pxPreviousWakeTime ) || ( xTimeToWake > xConstTickCount ) )
    80000fce:	00e7e463          	bltu	a5,a4,80000fd6 <xTaskDelayUntil+0x72>
    80000fd2:	fcf6fee3          	bgeu	a3,a5,80000fae <xTaskDelayUntil+0x4a>
            *pxPreviousWakeTime = xTimeToWake;
    80000fd6:	e11c                	sd	a5,0(a0)
                prvAddCurrentTaskToDelayedList( xTimeToWake - xConstTickCount, pdFALSE );
    80000fd8:	4581                	li	a1,0
    80000fda:	40d78533          	sub	a0,a5,a3
    80000fde:	fffff097          	auipc	ra,0xfffff
    80000fe2:	654080e7          	jalr	1620(ra) # 80000632 <prvAddCurrentTaskToDelayedList>
    80000fe6:	4485                	li	s1,1
    80000fe8:	b7e9                	j	80000fb2 <xTaskDelayUntil+0x4e>
    80000fea:	00000097          	auipc	ra,0x0
    80000fee:	9c8080e7          	jalr	-1592(ra) # 800009b2 <xTaskResumeAll.part.0>
        if( xAlreadyYielded == pdFALSE )
    80000ff2:	e119                	bnez	a0,80000ff8 <xTaskDelayUntil+0x94>
            taskYIELD_WITHIN_API();
    80000ff4:	00000073          	ecall
    }
    80000ff8:	60e2                	ld	ra,24(sp)
    80000ffa:	6442                	ld	s0,16(sp)
    80000ffc:	8526                	mv	a0,s1
    80000ffe:	64a2                	ld	s1,8(sp)
    80001000:	6105                	addi	sp,sp,32
    80001002:	8082                	ret

0000000080001004 <vTaskDelay>:
        if( xTicksToDelay > ( TickType_t ) 0U )
    80001004:	e501                	bnez	a0,8000100c <vTaskDelay+0x8>
            taskYIELD_WITHIN_API();
    80001006:	00000073          	ecall
    8000100a:	8082                	ret
    {
    8000100c:	1141                	addi	sp,sp,-16
    8000100e:	e022                	sd	s0,0(sp)
        uxSchedulerSuspended = ( UBaseType_t ) ( uxSchedulerSuspended + 1U );
    80001010:	00017417          	auipc	s0,0x17
    80001014:	ad040413          	addi	s0,s0,-1328 # 80017ae0 <uxSchedulerSuspended>
    80001018:	601c                	ld	a5,0(s0)
    {
    8000101a:	e406                	sd	ra,8(sp)
        uxSchedulerSuspended = ( UBaseType_t ) ( uxSchedulerSuspended + 1U );
    8000101c:	0785                	addi	a5,a5,1
    8000101e:	e01c                	sd	a5,0(s0)
                configASSERT( uxSchedulerSuspended == 1U );
    80001020:	6018                	ld	a4,0(s0)
    80001022:	4785                	li	a5,1
    80001024:	00f70563          	beq	a4,a5,8000102e <vTaskDelay+0x2a>
    80001028:	30047073          	csrci	mstatus,8
    8000102c:	a001                	j	8000102c <vTaskDelay+0x28>
                prvAddCurrentTaskToDelayedList( xTicksToDelay, pdFALSE );
    8000102e:	4581                	li	a1,0
    80001030:	fffff097          	auipc	ra,0xfffff
    80001034:	602080e7          	jalr	1538(ra) # 80000632 <prvAddCurrentTaskToDelayedList>
        taskENTER_CRITICAL();
    80001038:	30047073          	csrci	mstatus,8
    8000103c:	00006717          	auipc	a4,0x6
    80001040:	82470713          	addi	a4,a4,-2012 # 80006860 <xCriticalNesting>
    80001044:	631c                	ld	a5,0(a4)
            configASSERT( uxSchedulerSuspended != 0U );
    80001046:	6014                	ld	a3,0(s0)
        taskENTER_CRITICAL();
    80001048:	0785                	addi	a5,a5,1
    8000104a:	e31c                	sd	a5,0(a4)
            configASSERT( uxSchedulerSuspended != 0U );
    8000104c:	e681                	bnez	a3,80001054 <vTaskDelay+0x50>
    8000104e:	30047073          	csrci	mstatus,8
    80001052:	a001                	j	80001052 <vTaskDelay+0x4e>
    80001054:	00000097          	auipc	ra,0x0
    80001058:	95e080e7          	jalr	-1698(ra) # 800009b2 <xTaskResumeAll.part.0>
        if( xAlreadyYielded == pdFALSE )
    8000105c:	e119                	bnez	a0,80001062 <vTaskDelay+0x5e>
            taskYIELD_WITHIN_API();
    8000105e:	00000073          	ecall
    }
    80001062:	60a2                	ld	ra,8(sp)
    80001064:	6402                	ld	s0,0(sp)
    80001066:	0141                	addi	sp,sp,16
    80001068:	8082                	ret

000000008000106a <uxTaskPriorityGet>:
        portBASE_TYPE_ENTER_CRITICAL();
    8000106a:	30047073          	csrci	mstatus,8
    8000106e:	00005797          	auipc	a5,0x5
    80001072:	7f278793          	addi	a5,a5,2034 # 80006860 <xCriticalNesting>
    80001076:	6398                	ld	a4,0(a5)
    80001078:	00170693          	addi	a3,a4,1
    8000107c:	e394                	sd	a3,0(a5)
            pxTCB = prvGetTCBFromHandle( xTask );
    8000107e:	c519                	beqz	a0,8000108c <uxTaskPriorityGet+0x22>
        portBASE_TYPE_EXIT_CRITICAL();
    80001080:	e398                	sd	a4,0(a5)
            uxReturn = pxTCB->uxPriority;
    80001082:	6d28                	ld	a0,88(a0)
        portBASE_TYPE_EXIT_CRITICAL();
    80001084:	e319                	bnez	a4,8000108a <uxTaskPriorityGet+0x20>
    80001086:	30046073          	csrsi	mstatus,8
    }
    8000108a:	8082                	ret
            pxTCB = prvGetTCBFromHandle( xTask );
    8000108c:	00017517          	auipc	a0,0x17
    80001090:	ac453503          	ld	a0,-1340(a0) # 80017b50 <pxCurrentTCB>
            configASSERT( pxTCB != NULL );
    80001094:	f575                	bnez	a0,80001080 <uxTaskPriorityGet+0x16>
    80001096:	30047073          	csrci	mstatus,8
    8000109a:	a001                	j	8000109a <uxTaskPriorityGet+0x30>

000000008000109c <uxTaskPriorityGetFromISR>:
            pxTCB = prvGetTCBFromHandle( xTask );
    8000109c:	c119                	beqz	a0,800010a2 <uxTaskPriorityGetFromISR+0x6>
    }
    8000109e:	6d28                	ld	a0,88(a0)
    800010a0:	8082                	ret
            pxTCB = prvGetTCBFromHandle( xTask );
    800010a2:	00017517          	auipc	a0,0x17
    800010a6:	aae53503          	ld	a0,-1362(a0) # 80017b50 <pxCurrentTCB>
            configASSERT( pxTCB != NULL );
    800010aa:	f975                	bnez	a0,8000109e <uxTaskPriorityGetFromISR+0x2>
    800010ac:	30047073          	csrci	mstatus,8
    800010b0:	a001                	j	800010b0 <uxTaskPriorityGetFromISR+0x14>

00000000800010b2 <uxTaskBasePriorityGet>:
        portBASE_TYPE_ENTER_CRITICAL();
    800010b2:	30047073          	csrci	mstatus,8
    800010b6:	00005797          	auipc	a5,0x5
    800010ba:	7aa78793          	addi	a5,a5,1962 # 80006860 <xCriticalNesting>
    800010be:	6398                	ld	a4,0(a5)
    800010c0:	00170693          	addi	a3,a4,1
    800010c4:	e394                	sd	a3,0(a5)
            pxTCB = prvGetTCBFromHandle( xTask );
    800010c6:	c519                	beqz	a0,800010d4 <uxTaskBasePriorityGet+0x22>
        portBASE_TYPE_EXIT_CRITICAL();
    800010c8:	e398                	sd	a4,0(a5)
            uxReturn = pxTCB->uxBasePriority;
    800010ca:	7d28                	ld	a0,120(a0)
        portBASE_TYPE_EXIT_CRITICAL();
    800010cc:	e319                	bnez	a4,800010d2 <uxTaskBasePriorityGet+0x20>
    800010ce:	30046073          	csrsi	mstatus,8
    }
    800010d2:	8082                	ret
            pxTCB = prvGetTCBFromHandle( xTask );
    800010d4:	00017517          	auipc	a0,0x17
    800010d8:	a7c53503          	ld	a0,-1412(a0) # 80017b50 <pxCurrentTCB>
            configASSERT( pxTCB != NULL );
    800010dc:	f575                	bnez	a0,800010c8 <uxTaskBasePriorityGet+0x16>
    800010de:	30047073          	csrci	mstatus,8
    800010e2:	a001                	j	800010e2 <uxTaskBasePriorityGet+0x30>

00000000800010e4 <uxTaskBasePriorityGetFromISR>:
            pxTCB = prvGetTCBFromHandle( xTask );
    800010e4:	c119                	beqz	a0,800010ea <uxTaskBasePriorityGetFromISR+0x6>
    }
    800010e6:	7d28                	ld	a0,120(a0)
    800010e8:	8082                	ret
            pxTCB = prvGetTCBFromHandle( xTask );
    800010ea:	00017517          	auipc	a0,0x17
    800010ee:	a6653503          	ld	a0,-1434(a0) # 80017b50 <pxCurrentTCB>
            configASSERT( pxTCB != NULL );
    800010f2:	f975                	bnez	a0,800010e6 <uxTaskBasePriorityGetFromISR+0x2>
    800010f4:	30047073          	csrci	mstatus,8
    800010f8:	a001                	j	800010f8 <uxTaskBasePriorityGetFromISR+0x14>

00000000800010fa <vTaskPrioritySet>:
        configASSERT( uxNewPriority < configMAX_PRIORITIES );
    800010fa:	4791                	li	a5,4
    800010fc:	00b7f563          	bgeu	a5,a1,80001106 <vTaskPrioritySet+0xc>
    80001100:	30047073          	csrci	mstatus,8
    80001104:	a001                	j	80001104 <vTaskPrioritySet+0xa>
    {
    80001106:	7139                	addi	sp,sp,-64
    80001108:	f822                	sd	s0,48(sp)
    8000110a:	fc06                	sd	ra,56(sp)
    8000110c:	f426                	sd	s1,40(sp)
    8000110e:	f04a                	sd	s2,32(sp)
    80001110:	ec4e                	sd	s3,24(sp)
    80001112:	e852                	sd	s4,16(sp)
    80001114:	e456                	sd	s5,8(sp)
    80001116:	842a                	mv	s0,a0
        taskENTER_CRITICAL();
    80001118:	30047073          	csrci	mstatus,8
    8000111c:	00005497          	auipc	s1,0x5
    80001120:	74448493          	addi	s1,s1,1860 # 80006860 <xCriticalNesting>
    80001124:	609c                	ld	a5,0(s1)
    80001126:	00178713          	addi	a4,a5,1
    8000112a:	e098                	sd	a4,0(s1)
            pxTCB = prvGetTCBFromHandle( xTask );
    8000112c:	c93d                	beqz	a0,800011a2 <vTaskPrioritySet+0xa8>
                uxCurrentBasePriority = pxTCB->uxBasePriority;
    8000112e:	7c38                	ld	a4,120(s0)
            if( uxCurrentBasePriority != uxNewPriority )
    80001130:	04e58c63          	beq	a1,a4,80001188 <vTaskPrioritySet+0x8e>
                if( uxNewPriority > uxCurrentBasePriority )
    80001134:	06b76f63          	bltu	a4,a1,800011b2 <vTaskPrioritySet+0xb8>
                else if( taskTASK_IS_RUNNING( pxTCB ) == pdTRUE )
    80001138:	00017997          	auipc	s3,0x17
    8000113c:	a189b983          	ld	s3,-1512(s3) # 80017b50 <pxCurrentTCB>
    80001140:	408989b3          	sub	s3,s3,s0
    80001144:	0019b993          	seqz	s3,s3
                uxPriorityUsedOnEntry = pxTCB->uxPriority;
    80001148:	05843903          	ld	s2,88(s0)
                    if( ( pxTCB->uxBasePriority == pxTCB->uxPriority ) || ( uxNewPriority > pxTCB->uxPriority ) )
    8000114c:	09270163          	beq	a4,s2,800011ce <vTaskPrioritySet+0xd4>
    80001150:	06b96f63          	bltu	s2,a1,800011ce <vTaskPrioritySet+0xd4>
                if( ( listGET_LIST_ITEM_VALUE( &( pxTCB->xEventListItem ) ) & taskEVENT_LIST_ITEM_VALUE_IN_USE ) == ( ( TickType_t ) 0U ) )
    80001154:	781c                	ld	a5,48(s0)
                    pxTCB->uxBasePriority = uxNewPriority;
    80001156:	fc2c                	sd	a1,120(s0)
                if( ( listGET_LIST_ITEM_VALUE( &( pxTCB->xEventListItem ) ) & taskEVENT_LIST_ITEM_VALUE_IN_USE ) == ( ( TickType_t ) 0U ) )
    80001158:	01f7d79b          	srliw	a5,a5,0x1f
    8000115c:	e781                	bnez	a5,80001164 <vTaskPrioritySet+0x6a>
                    listSET_LIST_ITEM_VALUE( &( pxTCB->xEventListItem ), ( ( TickType_t ) configMAX_PRIORITIES - ( TickType_t ) uxNewPriority ) );
    8000115e:	4795                	li	a5,5
    80001160:	8f8d                	sub	a5,a5,a1
    80001162:	f81c                	sd	a5,48(s0)
                if( listIS_CONTAINED_WITHIN( &( pxReadyTasksLists[ uxPriorityUsedOnEntry ] ), &( pxTCB->xStateListItem ) ) != pdFALSE )
    80001164:	00291793          	slli	a5,s2,0x2
    80001168:	97ca                	add	a5,a5,s2
    8000116a:	7418                	ld	a4,40(s0)
    8000116c:	00005a17          	auipc	s4,0x5
    80001170:	754a0a13          	addi	s4,s4,1876 # 800068c0 <pxReadyTasksLists>
    80001174:	078e                	slli	a5,a5,0x3
    80001176:	97d2                	add	a5,a5,s4
    80001178:	04f70d63          	beq	a4,a5,800011d2 <vTaskPrioritySet+0xd8>
                if( xYieldRequired != pdFALSE )
    8000117c:	00098463          	beqz	s3,80001184 <vTaskPrioritySet+0x8a>
                    taskYIELD_TASK_CORE_IF_USING_PREEMPTION( pxTCB );
    80001180:	00000073          	ecall
        taskEXIT_CRITICAL();
    80001184:	609c                	ld	a5,0(s1)
    80001186:	17fd                	addi	a5,a5,-1
    80001188:	e09c                	sd	a5,0(s1)
    8000118a:	e399                	bnez	a5,80001190 <vTaskPrioritySet+0x96>
    8000118c:	30046073          	csrsi	mstatus,8
    }
    80001190:	70e2                	ld	ra,56(sp)
    80001192:	7442                	ld	s0,48(sp)
    80001194:	74a2                	ld	s1,40(sp)
    80001196:	7902                	ld	s2,32(sp)
    80001198:	69e2                	ld	s3,24(sp)
    8000119a:	6a42                	ld	s4,16(sp)
    8000119c:	6aa2                	ld	s5,8(sp)
    8000119e:	6121                	addi	sp,sp,64
    800011a0:	8082                	ret
            pxTCB = prvGetTCBFromHandle( xTask );
    800011a2:	00017417          	auipc	s0,0x17
    800011a6:	9ae43403          	ld	s0,-1618(s0) # 80017b50 <pxCurrentTCB>
            configASSERT( pxTCB != NULL );
    800011aa:	f051                	bnez	s0,8000112e <vTaskPrioritySet+0x34>
    800011ac:	30047073          	csrci	mstatus,8
    800011b0:	a001                	j	800011b0 <vTaskPrioritySet+0xb6>
                        if( pxTCB != pxCurrentTCB )
    800011b2:	00017797          	auipc	a5,0x17
    800011b6:	99e78793          	addi	a5,a5,-1634 # 80017b50 <pxCurrentTCB>
    800011ba:	6394                	ld	a3,0(a5)
        BaseType_t xYieldRequired = pdFALSE;
    800011bc:	4981                	li	s3,0
                        if( pxTCB != pxCurrentTCB )
    800011be:	f88685e3          	beq	a3,s0,80001148 <vTaskPrioritySet+0x4e>
                            if( uxNewPriority > pxCurrentTCB->uxPriority )
    800011c2:	639c                	ld	a5,0(a5)
    800011c4:	0587b983          	ld	s3,88(a5)
    800011c8:	00b9b9b3          	sltu	s3,s3,a1
    800011cc:	bfb5                	j	80001148 <vTaskPrioritySet+0x4e>
                        pxTCB->uxPriority = uxNewPriority;
    800011ce:	ec2c                	sd	a1,88(s0)
    800011d0:	b751                	j	80001154 <vTaskPrioritySet+0x5a>
                    if( uxListRemove( &( pxTCB->xStateListItem ) ) == ( UBaseType_t ) 0 )
    800011d2:	00840a93          	addi	s5,s0,8
    800011d6:	8556                	mv	a0,s5
    800011d8:	00001097          	auipc	ra,0x1
    800011dc:	458080e7          	jalr	1112(ra) # 80002630 <uxListRemove>
    800011e0:	00017617          	auipc	a2,0x17
    800011e4:	94060613          	addi	a2,a2,-1728 # 80017b20 <uxTopReadyPriority>
    800011e8:	e909                	bnez	a0,800011fa <vTaskPrioritySet+0x100>
                        portRESET_READY_PRIORITY( uxPriorityUsedOnEntry, uxTopReadyPriority );
    800011ea:	6218                	ld	a4,0(a2)
    800011ec:	4785                	li	a5,1
    800011ee:	012797b3          	sll	a5,a5,s2
    800011f2:	fff7c793          	not	a5,a5
    800011f6:	8ff9                	and	a5,a5,a4
    800011f8:	e21c                	sd	a5,0(a2)
                    prvAddTaskToReadyList( pxTCB );
    800011fa:	05843803          	ld	a6,88(s0)
    800011fe:	00005717          	auipc	a4,0x5
    80001202:	67270713          	addi	a4,a4,1650 # 80006870 <xSuspendedTaskList>
    80001206:	4685                	li	a3,1
    80001208:	00281793          	slli	a5,a6,0x2
    8000120c:	97c2                	add	a5,a5,a6
    8000120e:	078e                	slli	a5,a5,0x3
    80001210:	973e                	add	a4,a4,a5
    80001212:	6f2c                	ld	a1,88(a4)
    80001214:	6b28                	ld	a0,80(a4)
    80001216:	010696b3          	sll	a3,a3,a6
    8000121a:	0105b303          	ld	t1,16(a1)
    8000121e:	00063883          	ld	a7,0(a2)
    80001222:	e80c                	sd	a1,16(s0)
    80001224:	00643c23          	sd	t1,24(s0)
    80001228:	0105b803          	ld	a6,16(a1)
    8000122c:	9a3e                	add	s4,s4,a5
    8000122e:	0116e7b3          	or	a5,a3,a7
    80001232:	01583423          	sd	s5,8(a6)
    80001236:	0155b823          	sd	s5,16(a1)
    8000123a:	03443423          	sd	s4,40(s0)
    8000123e:	00150693          	addi	a3,a0,1
    80001242:	e21c                	sd	a5,0(a2)
    80001244:	eb34                	sd	a3,80(a4)
    80001246:	bf1d                	j	8000117c <vTaskPrioritySet+0x82>

0000000080001248 <vTaskResume>:
        configASSERT( xTaskToResume );
    80001248:	c13d                	beqz	a0,800012ae <vTaskResume+0x66>
    {
    8000124a:	7139                	addi	sp,sp,-64
    8000124c:	f426                	sd	s1,40(sp)
            if( ( pxTCB != pxCurrentTCB ) && ( pxTCB != NULL ) )
    8000124e:	00017497          	auipc	s1,0x17
    80001252:	90248493          	addi	s1,s1,-1790 # 80017b50 <pxCurrentTCB>
    80001256:	609c                	ld	a5,0(s1)
    {
    80001258:	f822                	sd	s0,48(sp)
    8000125a:	fc06                	sd	ra,56(sp)
    8000125c:	f04a                	sd	s2,32(sp)
    8000125e:	ec4e                	sd	s3,24(sp)
    80001260:	e852                	sd	s4,16(sp)
    80001262:	e456                	sd	s5,8(sp)
    80001264:	842a                	mv	s0,a0
            if( ( pxTCB != pxCurrentTCB ) && ( pxTCB != NULL ) )
    80001266:	02a78b63          	beq	a5,a0,8000129c <vTaskResume+0x54>
            taskENTER_CRITICAL();
    8000126a:	30047073          	csrci	mstatus,8
    8000126e:	00005917          	auipc	s2,0x5
    80001272:	5f290913          	addi	s2,s2,1522 # 80006860 <xCriticalNesting>
    80001276:	00093783          	ld	a5,0(s2)
        if( listIS_CONTAINED_WITHIN( &xSuspendedTaskList, &( pxTCB->xStateListItem ) ) != pdFALSE )
    8000127a:	02853983          	ld	s3,40(a0)
    8000127e:	00005717          	auipc	a4,0x5
    80001282:	5f270713          	addi	a4,a4,1522 # 80006870 <xSuspendedTaskList>
            taskENTER_CRITICAL();
    80001286:	00178693          	addi	a3,a5,1
    8000128a:	00d93023          	sd	a3,0(s2)
        if( listIS_CONTAINED_WITHIN( &xSuspendedTaskList, &( pxTCB->xStateListItem ) ) != pdFALSE )
    8000128e:	02e98363          	beq	s3,a4,800012b4 <vTaskResume+0x6c>
            taskEXIT_CRITICAL();
    80001292:	00f93023          	sd	a5,0(s2)
    80001296:	e399                	bnez	a5,8000129c <vTaskResume+0x54>
    80001298:	30046073          	csrsi	mstatus,8
    }
    8000129c:	70e2                	ld	ra,56(sp)
    8000129e:	7442                	ld	s0,48(sp)
    800012a0:	74a2                	ld	s1,40(sp)
    800012a2:	7902                	ld	s2,32(sp)
    800012a4:	69e2                	ld	s3,24(sp)
    800012a6:	6a42                	ld	s4,16(sp)
    800012a8:	6aa2                	ld	s5,8(sp)
    800012aa:	6121                	addi	sp,sp,64
    800012ac:	8082                	ret
        configASSERT( xTaskToResume );
    800012ae:	30047073          	csrci	mstatus,8
    800012b2:	a001                	j	800012b2 <vTaskResume+0x6a>
            if( listIS_CONTAINED_WITHIN( &xPendingReadyList, &( pxTCB->xEventListItem ) ) == pdFALSE )
    800012b4:	6938                	ld	a4,80(a0)
    800012b6:	00005697          	auipc	a3,0x5
    800012ba:	6d268693          	addi	a3,a3,1746 # 80006988 <xPendingReadyList>
    800012be:	fcd70ae3          	beq	a4,a3,80001292 <vTaskResume+0x4a>
                if( listIS_CONTAINED_WITHIN( NULL, &( pxTCB->xEventListItem ) ) != pdFALSE )
    800012c2:	fb61                	bnez	a4,80001292 <vTaskResume+0x4a>
                            if( pxTCB->ucNotifyState[ x ] == taskWAITING_NOTIFICATION )
    800012c4:	08c54703          	lbu	a4,140(a0)
    800012c8:	4a05                	li	s4,1
    800012ca:	fd4704e3          	beq	a4,s4,80001292 <vTaskResume+0x4a>
                    ( void ) uxListRemove( &( pxTCB->xStateListItem ) );
    800012ce:	00850a93          	addi	s5,a0,8
    800012d2:	8556                	mv	a0,s5
    800012d4:	00001097          	auipc	ra,0x1
    800012d8:	35c080e7          	jalr	860(ra) # 80002630 <uxListRemove>
                    prvAddTaskToReadyList( pxTCB );
    800012dc:	6c34                	ld	a3,88(s0)
    800012de:	00017597          	auipc	a1,0x17
    800012e2:	84258593          	addi	a1,a1,-1982 # 80017b20 <uxTopReadyPriority>
    800012e6:	6188                	ld	a0,0(a1)
    800012e8:	00269793          	slli	a5,a3,0x2
    800012ec:	97b6                	add	a5,a5,a3
    800012ee:	078e                	slli	a5,a5,0x3
    800012f0:	99be                	add	s3,s3,a5
    800012f2:	0589b603          	ld	a2,88(s3)
    800012f6:	00da1733          	sll	a4,s4,a3
    800012fa:	8f49                	or	a4,a4,a0
    800012fc:	6a08                	ld	a0,16(a2)
    800012fe:	e198                	sd	a4,0(a1)
                    taskYIELD_ANY_CORE_IF_USING_PREEMPTION( pxTCB );
    80001300:	608c                	ld	a1,0(s1)
                    prvAddTaskToReadyList( pxTCB );
    80001302:	ec08                	sd	a0,24(s0)
    80001304:	6a08                	ld	a0,16(a2)
    80001306:	e810                	sd	a2,16(s0)
    80001308:	0509b703          	ld	a4,80(s3)
    8000130c:	01553423          	sd	s5,8(a0)
    80001310:	01563823          	sd	s5,16(a2)
    80001314:	00005617          	auipc	a2,0x5
    80001318:	5ac60613          	addi	a2,a2,1452 # 800068c0 <pxReadyTasksLists>
    8000131c:	97b2                	add	a5,a5,a2
                    taskYIELD_ANY_CORE_IF_USING_PREEMPTION( pxTCB );
    8000131e:	6db0                	ld	a2,88(a1)
                    prvAddTaskToReadyList( pxTCB );
    80001320:	f41c                	sd	a5,40(s0)
    80001322:	00170793          	addi	a5,a4,1
    80001326:	04f9b823          	sd	a5,80(s3)
                    taskYIELD_ANY_CORE_IF_USING_PREEMPTION( pxTCB );
    8000132a:	00d67463          	bgeu	a2,a3,80001332 <vTaskResume+0xea>
    8000132e:	00000073          	ecall
            taskEXIT_CRITICAL();
    80001332:	00093783          	ld	a5,0(s2)
    80001336:	17fd                	addi	a5,a5,-1
    80001338:	bfa9                	j	80001292 <vTaskResume+0x4a>

000000008000133a <xTaskResumeFromISR>:
        configASSERT( xTaskToResume );
    8000133a:	c905                	beqz	a0,8000136a <xTaskResumeFromISR+0x30>
        if( listIS_CONTAINED_WITHIN( &xSuspendedTaskList, &( pxTCB->xStateListItem ) ) != pdFALSE )
    8000133c:	751c                	ld	a5,40(a0)
    {
    8000133e:	7179                	addi	sp,sp,-48
    80001340:	f022                	sd	s0,32(sp)
    80001342:	ec26                	sd	s1,24(sp)
    80001344:	e84a                	sd	s2,16(sp)
    80001346:	f406                	sd	ra,40(sp)
    80001348:	e44e                	sd	s3,8(sp)
        if( listIS_CONTAINED_WITHIN( &xSuspendedTaskList, &( pxTCB->xStateListItem ) ) != pdFALSE )
    8000134a:	00005497          	auipc	s1,0x5
    8000134e:	52648493          	addi	s1,s1,1318 # 80006870 <xSuspendedTaskList>
    80001352:	842a                	mv	s0,a0
        BaseType_t xYieldRequired = pdFALSE;
    80001354:	4901                	li	s2,0
        if( listIS_CONTAINED_WITHIN( &xSuspendedTaskList, &( pxTCB->xStateListItem ) ) != pdFALSE )
    80001356:	00978d63          	beq	a5,s1,80001370 <xTaskResumeFromISR+0x36>
    }
    8000135a:	70a2                	ld	ra,40(sp)
    8000135c:	7402                	ld	s0,32(sp)
    8000135e:	64e2                	ld	s1,24(sp)
    80001360:	69a2                	ld	s3,8(sp)
    80001362:	854a                	mv	a0,s2
    80001364:	6942                	ld	s2,16(sp)
    80001366:	6145                	addi	sp,sp,48
    80001368:	8082                	ret
        configASSERT( xTaskToResume );
    8000136a:	30047073          	csrci	mstatus,8
    8000136e:	a001                	j	8000136e <xTaskResumeFromISR+0x34>
            if( listIS_CONTAINED_WITHIN( &xPendingReadyList, &( pxTCB->xEventListItem ) ) == pdFALSE )
    80001370:	693c                	ld	a5,80(a0)
    80001372:	00005517          	auipc	a0,0x5
    80001376:	61650513          	addi	a0,a0,1558 # 80006988 <xPendingReadyList>
    8000137a:	fea780e3          	beq	a5,a0,8000135a <xTaskResumeFromISR+0x20>
                if( listIS_CONTAINED_WITHIN( NULL, &( pxTCB->xEventListItem ) ) != pdFALSE )
    8000137e:	fff1                	bnez	a5,8000135a <xTaskResumeFromISR+0x20>
                            if( pxTCB->ucNotifyState[ x ] == taskWAITING_NOTIFICATION )
    80001380:	08c44783          	lbu	a5,140(s0)
    80001384:	4685                	li	a3,1
    80001386:	fcd78ae3          	beq	a5,a3,8000135a <xTaskResumeFromISR+0x20>
                if( uxSchedulerSuspended == ( UBaseType_t ) 0U )
    8000138a:	00016797          	auipc	a5,0x16
    8000138e:	7567b783          	ld	a5,1878(a5) # 80017ae0 <uxSchedulerSuspended>
    80001392:	e3d1                	bnez	a5,80001416 <xTaskResumeFromISR+0xdc>
                        if( pxTCB->uxPriority > pxCurrentTCB->uxPriority )
    80001394:	00016797          	auipc	a5,0x16
    80001398:	7bc7b783          	ld	a5,1980(a5) # 80017b50 <pxCurrentTCB>
    8000139c:	6c38                	ld	a4,88(s0)
    8000139e:	6fbc                	ld	a5,88(a5)
    800013a0:	00e7f763          	bgeu	a5,a4,800013ae <xTaskResumeFromISR+0x74>
                            xYieldPendings[ 0 ] = pdTRUE;
    800013a4:	00016797          	auipc	a5,0x16
    800013a8:	76d7b223          	sd	a3,1892(a5) # 80017b08 <xYieldPendings>
                            xYieldRequired = pdTRUE;
    800013ac:	4905                	li	s2,1
                    ( void ) uxListRemove( &( pxTCB->xStateListItem ) );
    800013ae:	00840993          	addi	s3,s0,8
    800013b2:	854e                	mv	a0,s3
    800013b4:	00001097          	auipc	ra,0x1
    800013b8:	27c080e7          	jalr	636(ra) # 80002630 <uxListRemove>
                    prvAddTaskToReadyList( pxTCB );
    800013bc:	6c2c                	ld	a1,88(s0)
    800013be:	00016517          	auipc	a0,0x16
    800013c2:	76250513          	addi	a0,a0,1890 # 80017b20 <uxTopReadyPriority>
    800013c6:	00053803          	ld	a6,0(a0)
    800013ca:	00259793          	slli	a5,a1,0x2
    800013ce:	97ae                	add	a5,a5,a1
    800013d0:	078e                	slli	a5,a5,0x3
    800013d2:	94be                	add	s1,s1,a5
    800013d4:	6cb4                	ld	a3,88(s1)
    800013d6:	68b0                	ld	a2,80(s1)
    }
    800013d8:	70a2                	ld	ra,40(sp)
                    prvAddTaskToReadyList( pxTCB );
    800013da:	6a98                	ld	a4,16(a3)
    800013dc:	e814                	sd	a3,16(s0)
    800013de:	0605                	addi	a2,a2,1
    800013e0:	ec18                	sd	a4,24(s0)
    800013e2:	0106b883          	ld	a7,16(a3)
    800013e6:	4705                	li	a4,1
    800013e8:	00b71733          	sll	a4,a4,a1
    800013ec:	0138b423          	sd	s3,8(a7)
    800013f0:	00005597          	auipc	a1,0x5
    800013f4:	4d058593          	addi	a1,a1,1232 # 800068c0 <pxReadyTasksLists>
    800013f8:	0136b823          	sd	s3,16(a3)
    800013fc:	95be                	add	a1,a1,a5
    800013fe:	f40c                	sd	a1,40(s0)
    }
    80001400:	7402                	ld	s0,32(sp)
                    prvAddTaskToReadyList( pxTCB );
    80001402:	010767b3          	or	a5,a4,a6
    80001406:	e11c                	sd	a5,0(a0)
    80001408:	e8b0                	sd	a2,80(s1)
    }
    8000140a:	69a2                	ld	s3,8(sp)
    8000140c:	64e2                	ld	s1,24(sp)
    8000140e:	854a                	mv	a0,s2
    80001410:	6942                	ld	s2,16(sp)
    80001412:	6145                	addi	sp,sp,48
    80001414:	8082                	ret
                    vListInsertEnd( &( xPendingReadyList ), &( pxTCB->xEventListItem ) );
    80001416:	03040593          	addi	a1,s0,48
    8000141a:	00001097          	auipc	ra,0x1
    8000141e:	1d0080e7          	jalr	464(ra) # 800025ea <vListInsertEnd>
    80001422:	bf25                	j	8000135a <xTaskResumeFromISR+0x20>

0000000080001424 <vTaskStartScheduler>:
{
    80001424:	1101                	addi	sp,sp,-32
        cIdleName[ xIdleTaskNameIndex ] = configIDLE_TASK_NAME[ xIdleTaskNameIndex ];
    80001426:	04900793          	li	a5,73
    char cIdleName[ configMAX_TASK_NAME_LEN ] = { 0 };
    8000142a:	e002                	sd	zero,0(sp)
        cIdleName[ xIdleTaskNameIndex ] = configIDLE_TASK_NAME[ xIdleTaskNameIndex ];
    8000142c:	00f10023          	sb	a5,0(sp)
{
    80001430:	ec06                	sd	ra,24(sp)
    80001432:	e822                	sd	s0,16(sp)
    char cIdleName[ configMAX_TASK_NAME_LEN ] = { 0 };
    80001434:	e402                	sd	zero,8(sp)
        if( cIdleName[ xIdleTaskNameIndex ] == ( char ) 0x00 )
    80001436:	00005717          	auipc	a4,0x5
    8000143a:	c4b70713          	addi	a4,a4,-949 # 80006081 <__clz_tab+0x101>
    8000143e:	00110793          	addi	a5,sp,1
        cIdleName[ xIdleTaskNameIndex ] = configIDLE_TASK_NAME[ xIdleTaskNameIndex ];
    80001442:	00074683          	lbu	a3,0(a4)
        if( cIdleName[ xIdleTaskNameIndex ] == ( char ) 0x00 )
    80001446:	0785                	addi	a5,a5,1
    80001448:	0705                	addi	a4,a4,1
        cIdleName[ xIdleTaskNameIndex ] = configIDLE_TASK_NAME[ xIdleTaskNameIndex ];
    8000144a:	fed78fa3          	sb	a3,-1(a5)
        if( cIdleName[ xIdleTaskNameIndex ] == ( char ) 0x00 )
    8000144e:	faf5                	bnez	a3,80001442 <vTaskStartScheduler+0x1e>
            xReturn = xTaskCreate( pxIdleTaskFunction,
    80001450:	00016797          	auipc	a5,0x16
    80001454:	69878793          	addi	a5,a5,1688 # 80017ae8 <xIdleTaskHandles>
    80001458:	4701                	li	a4,0
    8000145a:	08000613          	li	a2,128
    8000145e:	858a                	mv	a1,sp
    80001460:	fffff517          	auipc	a0,0xfffff
    80001464:	36050513          	addi	a0,a0,864 # 800007c0 <prvIdleTask>
    80001468:	fffff097          	auipc	ra,0xfffff
    8000146c:	6f4080e7          	jalr	1780(ra) # 80000b5c <xTaskCreate>
        if( xReturn != pdPASS )
    80001470:	4405                	li	s0,1
    80001472:	04851363          	bne	a0,s0,800014b8 <vTaskStartScheduler+0x94>
            xReturn = xTimerCreateTimerTask();
    80001476:	00002097          	auipc	ra,0x2
    8000147a:	514080e7          	jalr	1300(ra) # 8000398a <xTimerCreateTimerTask>
    if( xReturn == pdPASS )
    8000147e:	02851d63          	bne	a0,s0,800014b8 <vTaskStartScheduler+0x94>
        portDISABLE_INTERRUPTS();
    80001482:	30047073          	csrci	mstatus,8
        xNextTaskUnblockTime = portMAX_DELAY;
    80001486:	57fd                	li	a5,-1
    80001488:	00016717          	auipc	a4,0x16
    8000148c:	66f73423          	sd	a5,1640(a4) # 80017af0 <xNextTaskUnblockTime>
        xSchedulerRunning = pdTRUE;
    80001490:	00016797          	auipc	a5,0x16
    80001494:	68a7b423          	sd	a0,1672(a5) # 80017b18 <xSchedulerRunning>
        xTickCount = ( TickType_t ) configINITIAL_TICK_COUNT;
    80001498:	00016797          	auipc	a5,0x16
    8000149c:	6807b823          	sd	zero,1680(a5) # 80017b28 <xTickCount>
        ( void ) xPortStartScheduler();
    800014a0:	00004097          	auipc	ra,0x4
    800014a4:	a56080e7          	jalr	-1450(ra) # 80004ef6 <xPortStartScheduler>
}
    800014a8:	60e2                	ld	ra,24(sp)
    800014aa:	6442                	ld	s0,16(sp)
    ( void ) uxTopUsedPriority;
    800014ac:	00005797          	auipc	a5,0x5
    800014b0:	3a47b783          	ld	a5,932(a5) # 80006850 <uxTopUsedPriority>
}
    800014b4:	6105                	addi	sp,sp,32
    800014b6:	8082                	ret
        configASSERT( xReturn != errCOULD_NOT_ALLOCATE_REQUIRED_MEMORY );
    800014b8:	57fd                	li	a5,-1
    800014ba:	fef517e3          	bne	a0,a5,800014a8 <vTaskStartScheduler+0x84>
    800014be:	30047073          	csrci	mstatus,8
    800014c2:	a001                	j	800014c2 <vTaskStartScheduler+0x9e>

00000000800014c4 <vTaskEndScheduler>:
{
    800014c4:	1141                	addi	sp,sp,-16
    800014c6:	e406                	sd	ra,8(sp)
            vTaskDelete( xTimerGetTimerDaemonTaskHandle() );
    800014c8:	00002097          	auipc	ra,0x2
    800014cc:	634080e7          	jalr	1588(ra) # 80003afc <xTimerGetTimerDaemonTaskHandle>
    800014d0:	00000097          	auipc	ra,0x0
    800014d4:	930080e7          	jalr	-1744(ra) # 80000e00 <vTaskDelete>
            vTaskDelete( xIdleTaskHandles[ xCoreID ] );
    800014d8:	00016517          	auipc	a0,0x16
    800014dc:	61053503          	ld	a0,1552(a0) # 80017ae8 <xIdleTaskHandles>
    800014e0:	00000097          	auipc	ra,0x0
    800014e4:	920080e7          	jalr	-1760(ra) # 80000e00 <vTaskDelete>
        prvCheckTasksWaitingTermination();
    800014e8:	fffff097          	auipc	ra,0xfffff
    800014ec:	23e080e7          	jalr	574(ra) # 80000726 <prvCheckTasksWaitingTermination>
    portDISABLE_INTERRUPTS();
    800014f0:	30047073          	csrci	mstatus,8
}
    800014f4:	60a2                	ld	ra,8(sp)
    xSchedulerRunning = pdFALSE;
    800014f6:	00016797          	auipc	a5,0x16
    800014fa:	6207b123          	sd	zero,1570(a5) # 80017b18 <xSchedulerRunning>
}
    800014fe:	0141                	addi	sp,sp,16
    vPortEndScheduler();
    80001500:	00004317          	auipc	t1,0x4
    80001504:	a3230067          	jr	-1486(t1) # 80004f32 <vPortEndScheduler>

0000000080001508 <vTaskSuspendAll>:
        uxSchedulerSuspended = ( UBaseType_t ) ( uxSchedulerSuspended + 1U );
    80001508:	00016717          	auipc	a4,0x16
    8000150c:	5d870713          	addi	a4,a4,1496 # 80017ae0 <uxSchedulerSuspended>
    80001510:	631c                	ld	a5,0(a4)
    80001512:	0785                	addi	a5,a5,1
    80001514:	e31c                	sd	a5,0(a4)
}
    80001516:	8082                	ret

0000000080001518 <xTaskResumeAll>:
        taskENTER_CRITICAL();
    80001518:	30047073          	csrci	mstatus,8
    8000151c:	00005717          	auipc	a4,0x5
    80001520:	34470713          	addi	a4,a4,836 # 80006860 <xCriticalNesting>
    80001524:	631c                	ld	a5,0(a4)
            configASSERT( uxSchedulerSuspended != 0U );
    80001526:	00016697          	auipc	a3,0x16
    8000152a:	5ba6b683          	ld	a3,1466(a3) # 80017ae0 <uxSchedulerSuspended>
        taskENTER_CRITICAL();
    8000152e:	0785                	addi	a5,a5,1
    80001530:	e31c                	sd	a5,0(a4)
            configASSERT( uxSchedulerSuspended != 0U );
    80001532:	e681                	bnez	a3,8000153a <xTaskResumeAll+0x22>
    80001534:	30047073          	csrci	mstatus,8
    80001538:	a001                	j	80001538 <xTaskResumeAll+0x20>
    8000153a:	fffff317          	auipc	t1,0xfffff
    8000153e:	47830067          	jr	1144(t1) # 800009b2 <xTaskResumeAll.part.0>

0000000080001542 <xTaskGetTickCount>:
}
    80001542:	00016517          	auipc	a0,0x16
    80001546:	5e653503          	ld	a0,1510(a0) # 80017b28 <xTickCount>
    8000154a:	8082                	ret

000000008000154c <xTaskGetTickCountFromISR>:
    8000154c:	00016517          	auipc	a0,0x16
    80001550:	5dc53503          	ld	a0,1500(a0) # 80017b28 <xTickCount>
    80001554:	8082                	ret

0000000080001556 <uxTaskGetNumberOfTasks>:
}
    80001556:	00016517          	auipc	a0,0x16
    8000155a:	5da53503          	ld	a0,1498(a0) # 80017b30 <uxCurrentNumberOfTasks>
    8000155e:	8082                	ret

0000000080001560 <pcTaskGetName>:
    pxTCB = prvGetTCBFromHandle( xTaskToQuery );
    80001560:	c501                	beqz	a0,80001568 <pcTaskGetName+0x8>
}
    80001562:	06850513          	addi	a0,a0,104
    80001566:	8082                	ret
    pxTCB = prvGetTCBFromHandle( xTaskToQuery );
    80001568:	00016517          	auipc	a0,0x16
    8000156c:	5e853503          	ld	a0,1512(a0) # 80017b50 <pxCurrentTCB>
    configASSERT( pxTCB != NULL );
    80001570:	f96d                	bnez	a0,80001562 <pcTaskGetName+0x2>
    80001572:	30047073          	csrci	mstatus,8
    80001576:	a001                	j	80001576 <pcTaskGetName+0x16>

0000000080001578 <xTaskCatchUpTicks>:
    configASSERT( uxSchedulerSuspended == ( UBaseType_t ) 0U );
    80001578:	00016797          	auipc	a5,0x16
    8000157c:	56878793          	addi	a5,a5,1384 # 80017ae0 <uxSchedulerSuspended>
    80001580:	6398                	ld	a4,0(a5)
    80001582:	c701                	beqz	a4,8000158a <xTaskCatchUpTicks+0x12>
    80001584:	30047073          	csrci	mstatus,8
    80001588:	a001                	j	80001588 <xTaskCatchUpTicks+0x10>
        uxSchedulerSuspended = ( UBaseType_t ) ( uxSchedulerSuspended + 1U );
    8000158a:	6398                	ld	a4,0(a5)
    8000158c:	0705                	addi	a4,a4,1
    8000158e:	e398                	sd	a4,0(a5)
    taskENTER_CRITICAL();
    80001590:	30047073          	csrci	mstatus,8
        xPendedTicks += xTicksToCatchUp;
    80001594:	00016617          	auipc	a2,0x16
    80001598:	57c60613          	addi	a2,a2,1404 # 80017b10 <xPendedTicks>
    8000159c:	6214                	ld	a3,0(a2)
    taskENTER_CRITICAL();
    8000159e:	00005717          	auipc	a4,0x5
    800015a2:	2c270713          	addi	a4,a4,706 # 80006860 <xCriticalNesting>
    800015a6:	630c                	ld	a1,0(a4)
        xPendedTicks += xTicksToCatchUp;
    800015a8:	96aa                	add	a3,a3,a0
    800015aa:	e214                	sd	a3,0(a2)
    taskEXIT_CRITICAL();
    800015ac:	e199                	bnez	a1,800015b2 <xTaskCatchUpTicks+0x3a>
    800015ae:	30046073          	csrsi	mstatus,8
        taskENTER_CRITICAL();
    800015b2:	30047073          	csrci	mstatus,8
    800015b6:	6314                	ld	a3,0(a4)
            configASSERT( uxSchedulerSuspended != 0U );
    800015b8:	6390                	ld	a2,0(a5)
        taskENTER_CRITICAL();
    800015ba:	00168793          	addi	a5,a3,1
    800015be:	e31c                	sd	a5,0(a4)
            configASSERT( uxSchedulerSuspended != 0U );
    800015c0:	e601                	bnez	a2,800015c8 <xTaskCatchUpTicks+0x50>
    800015c2:	30047073          	csrci	mstatus,8
    800015c6:	a001                	j	800015c6 <xTaskCatchUpTicks+0x4e>
    800015c8:	fffff317          	auipc	t1,0xfffff
    800015cc:	3ea30067          	jr	1002(t1) # 800009b2 <xTaskResumeAll.part.0>

00000000800015d0 <xTaskIncrementTick>:
    if( uxSchedulerSuspended == ( UBaseType_t ) 0U )
    800015d0:	00016797          	auipc	a5,0x16
    800015d4:	5107b783          	ld	a5,1296(a5) # 80017ae0 <uxSchedulerSuspended>
    800015d8:	e789                	bnez	a5,800015e2 <xTaskIncrementTick+0x12>
    800015da:	fffff317          	auipc	t1,0xfffff
    800015de:	21a30067          	jr	538(t1) # 800007f4 <xTaskIncrementTick.part.0>
        xPendedTicks += 1U;
    800015e2:	00016717          	auipc	a4,0x16
    800015e6:	52e70713          	addi	a4,a4,1326 # 80017b10 <xPendedTicks>
    800015ea:	631c                	ld	a5,0(a4)
}
    800015ec:	4501                	li	a0,0
        xPendedTicks += 1U;
    800015ee:	0785                	addi	a5,a5,1
    800015f0:	e31c                	sd	a5,0(a4)
}
    800015f2:	8082                	ret

00000000800015f4 <vTaskSwitchContext>:
        if( uxSchedulerSuspended != ( UBaseType_t ) 0U )
    800015f4:	00016797          	auipc	a5,0x16
    800015f8:	4ec7b783          	ld	a5,1260(a5) # 80017ae0 <uxSchedulerSuspended>
    800015fc:	c799                	beqz	a5,8000160a <vTaskSwitchContext+0x16>
            xYieldPendings[ 0 ] = pdTRUE;
    800015fe:	4785                	li	a5,1
    80001600:	00016717          	auipc	a4,0x16
    80001604:	50f73423          	sd	a5,1288(a4) # 80017b08 <xYieldPendings>
    80001608:	8082                	ret
            xYieldPendings[ 0 ] = pdFALSE;
    8000160a:	00016797          	auipc	a5,0x16
    8000160e:	4e07bf23          	sd	zero,1278(a5) # 80017b08 <xYieldPendings>
            taskSELECT_HIGHEST_PRIORITY_TASK();
    80001612:	00016517          	auipc	a0,0x16
    80001616:	50e53503          	ld	a0,1294(a0) # 80017b20 <uxTopReadyPriority>
    8000161a:	1502                	slli	a0,a0,0x20
    {
    8000161c:	1141                	addi	sp,sp,-16
            taskSELECT_HIGHEST_PRIORITY_TASK();
    8000161e:	9101                	srli	a0,a0,0x20
    {
    80001620:	e406                	sd	ra,8(sp)
            taskSELECT_HIGHEST_PRIORITY_TASK();
    80001622:	00004097          	auipc	ra,0x4
    80001626:	72a080e7          	jalr	1834(ra) # 80005d4c <__clzdi2>
    8000162a:	3501                	addiw	a0,a0,-32
    8000162c:	477d                	li	a4,31
    8000162e:	8f09                	sub	a4,a4,a0
    80001630:	00271793          	slli	a5,a4,0x2
    80001634:	97ba                	add	a5,a5,a4
    80001636:	078e                	slli	a5,a5,0x3
    80001638:	00005717          	auipc	a4,0x5
    8000163c:	23870713          	addi	a4,a4,568 # 80006870 <xSuspendedTaskList>
    80001640:	973e                	add	a4,a4,a5
    80001642:	6b34                	ld	a3,80(a4)
    80001644:	e681                	bnez	a3,8000164c <vTaskSwitchContext+0x58>
    80001646:	30047073          	csrci	mstatus,8
    8000164a:	a001                	j	8000164a <vTaskSwitchContext+0x56>
    8000164c:	6f34                	ld	a3,88(a4)
    8000164e:	00005617          	auipc	a2,0x5
    80001652:	28260613          	addi	a2,a2,642 # 800068d0 <pxReadyTasksLists+0x10>
    80001656:	97b2                	add	a5,a5,a2
    80001658:	6694                	ld	a3,8(a3)
    8000165a:	ef34                	sd	a3,88(a4)
    8000165c:	00f68c63          	beq	a3,a5,80001674 <vTaskSwitchContext+0x80>
    80001660:	6e98                	ld	a4,24(a3)
    }
    80001662:	60a2                	ld	ra,8(sp)
            taskSELECT_HIGHEST_PRIORITY_TASK();
    80001664:	00016797          	auipc	a5,0x16
    80001668:	4ec78793          	addi	a5,a5,1260 # 80017b50 <pxCurrentTCB>
    8000166c:	e398                	sd	a4,0(a5)
            portTASK_SWITCH_HOOK( pxCurrentTCB );
    8000166e:	639c                	ld	a5,0(a5)
    }
    80001670:	0141                	addi	sp,sp,16
    80001672:	8082                	ret
            taskSELECT_HIGHEST_PRIORITY_TASK();
    80001674:	7734                	ld	a3,104(a4)
    80001676:	ef34                	sd	a3,88(a4)
    80001678:	b7e5                	j	80001660 <vTaskSwitchContext+0x6c>

000000008000167a <vTaskSuspend>:
    {
    8000167a:	7179                	addi	sp,sp,-48
    8000167c:	f406                	sd	ra,40(sp)
    8000167e:	f022                	sd	s0,32(sp)
    80001680:	ec26                	sd	s1,24(sp)
    80001682:	e84a                	sd	s2,16(sp)
    80001684:	e44e                	sd	s3,8(sp)
        taskENTER_CRITICAL();
    80001686:	30047073          	csrci	mstatus,8
    8000168a:	00005497          	auipc	s1,0x5
    8000168e:	1d648493          	addi	s1,s1,470 # 80006860 <xCriticalNesting>
    80001692:	609c                	ld	a5,0(s1)
    80001694:	00016917          	auipc	s2,0x16
    80001698:	4bc90913          	addi	s2,s2,1212 # 80017b50 <pxCurrentTCB>
    8000169c:	842a                	mv	s0,a0
    8000169e:	0785                	addi	a5,a5,1
    800016a0:	e09c                	sd	a5,0(s1)
            pxTCB = prvGetTCBFromHandle( xTaskToSuspend );
    800016a2:	c145                	beqz	a0,80001742 <vTaskSuspend+0xc8>
            if( uxListRemove( &( pxTCB->xStateListItem ) ) == ( UBaseType_t ) 0 )
    800016a4:	00840993          	addi	s3,s0,8
    800016a8:	854e                	mv	a0,s3
    800016aa:	00001097          	auipc	ra,0x1
    800016ae:	f86080e7          	jalr	-122(ra) # 80002630 <uxListRemove>
    800016b2:	e90d                	bnez	a0,800016e4 <vTaskSuspend+0x6a>
                taskRESET_READY_PRIORITY( pxTCB->uxPriority );
    800016b4:	6c34                	ld	a3,88(s0)
    800016b6:	00005717          	auipc	a4,0x5
    800016ba:	1ba70713          	addi	a4,a4,442 # 80006870 <xSuspendedTaskList>
    800016be:	00269793          	slli	a5,a3,0x2
    800016c2:	97b6                	add	a5,a5,a3
    800016c4:	078e                	slli	a5,a5,0x3
    800016c6:	97ba                	add	a5,a5,a4
    800016c8:	6bbc                	ld	a5,80(a5)
    800016ca:	ef89                	bnez	a5,800016e4 <vTaskSuspend+0x6a>
    800016cc:	00016717          	auipc	a4,0x16
    800016d0:	45470713          	addi	a4,a4,1108 # 80017b20 <uxTopReadyPriority>
    800016d4:	6310                	ld	a2,0(a4)
    800016d6:	4785                	li	a5,1
    800016d8:	00d797b3          	sll	a5,a5,a3
    800016dc:	fff7c793          	not	a5,a5
    800016e0:	8ff1                	and	a5,a5,a2
    800016e2:	e31c                	sd	a5,0(a4)
            if( listLIST_ITEM_CONTAINER( &( pxTCB->xEventListItem ) ) != NULL )
    800016e4:	683c                	ld	a5,80(s0)
    800016e6:	c799                	beqz	a5,800016f4 <vTaskSuspend+0x7a>
                ( void ) uxListRemove( &( pxTCB->xEventListItem ) );
    800016e8:	03040513          	addi	a0,s0,48
    800016ec:	00001097          	auipc	ra,0x1
    800016f0:	f44080e7          	jalr	-188(ra) # 80002630 <uxListRemove>
            vListInsertEnd( &xSuspendedTaskList, &( pxTCB->xStateListItem ) );
    800016f4:	85ce                	mv	a1,s3
    800016f6:	00005517          	auipc	a0,0x5
    800016fa:	17a50513          	addi	a0,a0,378 # 80006870 <xSuspendedTaskList>
    800016fe:	00001097          	auipc	ra,0x1
    80001702:	eec080e7          	jalr	-276(ra) # 800025ea <vListInsertEnd>
                    if( pxTCB->ucNotifyState[ x ] == taskWAITING_NOTIFICATION )
    80001706:	08c44703          	lbu	a4,140(s0)
    8000170a:	4785                	li	a5,1
    8000170c:	00f71463          	bne	a4,a5,80001714 <vTaskSuspend+0x9a>
                        pxTCB->ucNotifyState[ x ] = taskNOT_WAITING_NOTIFICATION;
    80001710:	08040623          	sb	zero,140(s0)
        taskEXIT_CRITICAL();
    80001714:	609c                	ld	a5,0(s1)
    80001716:	17fd                	addi	a5,a5,-1
    80001718:	e09c                	sd	a5,0(s1)
    8000171a:	e399                	bnez	a5,80001720 <vTaskSuspend+0xa6>
    8000171c:	30046073          	csrsi	mstatus,8
            if( xSchedulerRunning != pdFALSE )
    80001720:	00016797          	auipc	a5,0x16
    80001724:	3f878793          	addi	a5,a5,1016 # 80017b18 <xSchedulerRunning>
    80001728:	6398                	ld	a4,0(a5)
    8000172a:	e315                	bnez	a4,8000174e <vTaskSuspend+0xd4>
            if( pxTCB == pxCurrentTCB )
    8000172c:	00093703          	ld	a4,0(s2)
    80001730:	04870663          	beq	a4,s0,8000177c <vTaskSuspend+0x102>
    }
    80001734:	70a2                	ld	ra,40(sp)
    80001736:	7402                	ld	s0,32(sp)
    80001738:	64e2                	ld	s1,24(sp)
    8000173a:	6942                	ld	s2,16(sp)
    8000173c:	69a2                	ld	s3,8(sp)
    8000173e:	6145                	addi	sp,sp,48
    80001740:	8082                	ret
            pxTCB = prvGetTCBFromHandle( xTaskToSuspend );
    80001742:	00093403          	ld	s0,0(s2)
            configASSERT( pxTCB != NULL );
    80001746:	fc39                	bnez	s0,800016a4 <vTaskSuspend+0x2a>
    80001748:	30047073          	csrci	mstatus,8
    8000174c:	a001                	j	8000174c <vTaskSuspend+0xd2>
                taskENTER_CRITICAL();
    8000174e:	30047073          	csrci	mstatus,8
    if( listLIST_IS_EMPTY( pxDelayedTaskList ) != pdFALSE )
    80001752:	00016697          	auipc	a3,0x16
    80001756:	3f668693          	addi	a3,a3,1014 # 80017b48 <pxDelayedTaskList>
    8000175a:	6290                	ld	a2,0(a3)
                taskENTER_CRITICAL();
    8000175c:	6098                	ld	a4,0(s1)
    if( listLIST_IS_EMPTY( pxDelayedTaskList ) != pdFALSE )
    8000175e:	6210                	ld	a2,0(a2)
                taskENTER_CRITICAL();
    80001760:	00170593          	addi	a1,a4,1
    80001764:	e08c                	sd	a1,0(s1)
    if( listLIST_IS_EMPTY( pxDelayedTaskList ) != pdFALSE )
    80001766:	e60d                	bnez	a2,80001790 <vTaskSuspend+0x116>
        xNextTaskUnblockTime = portMAX_DELAY;
    80001768:	56fd                	li	a3,-1
    8000176a:	00016617          	auipc	a2,0x16
    8000176e:	38d63323          	sd	a3,902(a2) # 80017af0 <xNextTaskUnblockTime>
                taskEXIT_CRITICAL();
    80001772:	e098                	sd	a4,0(s1)
    80001774:	ff45                	bnez	a4,8000172c <vTaskSuspend+0xb2>
    80001776:	30046073          	csrsi	mstatus,8
    8000177a:	bf4d                	j	8000172c <vTaskSuspend+0xb2>
                if( xSchedulerRunning != pdFALSE )
    8000177c:	639c                	ld	a5,0(a5)
    8000177e:	c38d                	beqz	a5,800017a0 <vTaskSuspend+0x126>
                    configASSERT( uxSchedulerSuspended == 0 );
    80001780:	00016797          	auipc	a5,0x16
    80001784:	3607b783          	ld	a5,864(a5) # 80017ae0 <uxSchedulerSuspended>
    80001788:	cb9d                	beqz	a5,800017be <vTaskSuspend+0x144>
    8000178a:	30047073          	csrci	mstatus,8
    8000178e:	a001                	j	8000178e <vTaskSuspend+0x114>
        xNextTaskUnblockTime = listGET_ITEM_VALUE_OF_HEAD_ENTRY( pxDelayedTaskList );
    80001790:	6294                	ld	a3,0(a3)
    80001792:	6e94                	ld	a3,24(a3)
    80001794:	6294                	ld	a3,0(a3)
    80001796:	00016617          	auipc	a2,0x16
    8000179a:	34d63d23          	sd	a3,858(a2) # 80017af0 <xNextTaskUnblockTime>
}
    8000179e:	bfd1                	j	80001772 <vTaskSuspend+0xf8>
                    if( uxCurrentListLength == uxCurrentNumberOfTasks )
    800017a0:	00016717          	auipc	a4,0x16
    800017a4:	39073703          	ld	a4,912(a4) # 80017b30 <uxCurrentNumberOfTasks>
    800017a8:	00005797          	auipc	a5,0x5
    800017ac:	0c87b783          	ld	a5,200(a5) # 80006870 <xSuspendedTaskList>
    800017b0:	00f71a63          	bne	a4,a5,800017c4 <vTaskSuspend+0x14a>
                        pxCurrentTCB = NULL;
    800017b4:	00016797          	auipc	a5,0x16
    800017b8:	3807be23          	sd	zero,924(a5) # 80017b50 <pxCurrentTCB>
    800017bc:	bfa5                	j	80001734 <vTaskSuspend+0xba>
                    portYIELD_WITHIN_API();
    800017be:	00000073          	ecall
    800017c2:	bf8d                	j	80001734 <vTaskSuspend+0xba>
    }
    800017c4:	7402                	ld	s0,32(sp)
    800017c6:	70a2                	ld	ra,40(sp)
    800017c8:	64e2                	ld	s1,24(sp)
    800017ca:	6942                	ld	s2,16(sp)
    800017cc:	69a2                	ld	s3,8(sp)
    800017ce:	6145                	addi	sp,sp,48
                        vTaskSwitchContext();
    800017d0:	00000317          	auipc	t1,0x0
    800017d4:	e2430067          	jr	-476(t1) # 800015f4 <vTaskSwitchContext>

00000000800017d8 <vTaskPlaceOnEventList>:
    configASSERT( pxEventList );
    800017d8:	c905                	beqz	a0,80001808 <vTaskPlaceOnEventList+0x30>
{
    800017da:	1141                	addi	sp,sp,-16
    800017dc:	e022                	sd	s0,0(sp)
    800017de:	842e                	mv	s0,a1
    vListInsert( pxEventList, &( pxCurrentTCB->xEventListItem ) );
    800017e0:	00016597          	auipc	a1,0x16
    800017e4:	3705b583          	ld	a1,880(a1) # 80017b50 <pxCurrentTCB>
    800017e8:	03058593          	addi	a1,a1,48
{
    800017ec:	e406                	sd	ra,8(sp)
    vListInsert( pxEventList, &( pxCurrentTCB->xEventListItem ) );
    800017ee:	00001097          	auipc	ra,0x1
    800017f2:	e14080e7          	jalr	-492(ra) # 80002602 <vListInsert>
    prvAddCurrentTaskToDelayedList( xTicksToWait, pdTRUE );
    800017f6:	8522                	mv	a0,s0
}
    800017f8:	6402                	ld	s0,0(sp)
    800017fa:	60a2                	ld	ra,8(sp)
    prvAddCurrentTaskToDelayedList( xTicksToWait, pdTRUE );
    800017fc:	4585                	li	a1,1
}
    800017fe:	0141                	addi	sp,sp,16
    prvAddCurrentTaskToDelayedList( xTicksToWait, pdTRUE );
    80001800:	fffff317          	auipc	t1,0xfffff
    80001804:	e3230067          	jr	-462(t1) # 80000632 <prvAddCurrentTaskToDelayedList>
    configASSERT( pxEventList );
    80001808:	30047073          	csrci	mstatus,8
    8000180c:	a001                	j	8000180c <vTaskPlaceOnEventList+0x34>

000000008000180e <vTaskPlaceOnUnorderedEventList>:
{
    8000180e:	87aa                	mv	a5,a0
    configASSERT( pxEventList );
    80001810:	c92d                	beqz	a0,80001882 <vTaskPlaceOnUnorderedEventList+0x74>
    configASSERT( uxSchedulerSuspended != ( UBaseType_t ) 0U );
    80001812:	00016717          	auipc	a4,0x16
    80001816:	2ce73703          	ld	a4,718(a4) # 80017ae0 <uxSchedulerSuspended>
    8000181a:	e701                	bnez	a4,80001822 <vTaskPlaceOnUnorderedEventList+0x14>
    8000181c:	30047073          	csrci	mstatus,8
    80001820:	a001                	j	80001820 <vTaskPlaceOnUnorderedEventList+0x12>
    listINSERT_END( pxEventList, &( pxCurrentTCB->xEventListItem ) );
    80001822:	6514                	ld	a3,8(a0)
    listSET_LIST_ITEM_VALUE( &( pxCurrentTCB->xEventListItem ), xItemValue | taskEVENT_LIST_ITEM_VALUE_IN_USE );
    80001824:	00016717          	auipc	a4,0x16
    80001828:	32c70713          	addi	a4,a4,812 # 80017b50 <pxCurrentTCB>
    8000182c:	00073e03          	ld	t3,0(a4)
    80001830:	4505                	li	a0,1
    listINSERT_END( pxEventList, &( pxCurrentTCB->xEventListItem ) );
    80001832:	00073303          	ld	t1,0(a4)
    listSET_LIST_ITEM_VALUE( &( pxCurrentTCB->xEventListItem ), xItemValue | taskEVENT_LIST_ITEM_VALUE_IN_USE );
    80001836:	057e                	slli	a0,a0,0x1f
    listINSERT_END( pxEventList, &( pxCurrentTCB->xEventListItem ) );
    80001838:	0106b883          	ld	a7,16(a3)
    8000183c:	00073803          	ld	a6,0(a4)
    listSET_LIST_ITEM_VALUE( &( pxCurrentTCB->xEventListItem ), xItemValue | taskEVENT_LIST_ITEM_VALUE_IN_USE );
    80001840:	8dc9                	or	a1,a1,a0
    80001842:	02be3823          	sd	a1,48(t3)
    listINSERT_END( pxEventList, &( pxCurrentTCB->xEventListItem ) );
    80001846:	02d33c23          	sd	a3,56(t1)
    8000184a:	05183023          	sd	a7,64(a6)
    8000184e:	00073803          	ld	a6,0(a4)
    80001852:	0106b303          	ld	t1,16(a3)
    80001856:	6308                	ld	a0,0(a4)
    80001858:	638c                	ld	a1,0(a5)
    8000185a:	00073883          	ld	a7,0(a4)
    8000185e:	03080713          	addi	a4,a6,48
    80001862:	00e33423          	sd	a4,8(t1)
    80001866:	03050713          	addi	a4,a0,48
    8000186a:	ea98                	sd	a4,16(a3)
    8000186c:	04f8b823          	sd	a5,80(a7)
    80001870:	00158713          	addi	a4,a1,1
    80001874:	e398                	sd	a4,0(a5)
    prvAddCurrentTaskToDelayedList( xTicksToWait, pdTRUE );
    80001876:	4585                	li	a1,1
    80001878:	8532                	mv	a0,a2
    8000187a:	fffff317          	auipc	t1,0xfffff
    8000187e:	db830067          	jr	-584(t1) # 80000632 <prvAddCurrentTaskToDelayedList>
    configASSERT( pxEventList );
    80001882:	30047073          	csrci	mstatus,8
    80001886:	a001                	j	80001886 <vTaskPlaceOnUnorderedEventList+0x78>

0000000080001888 <vTaskPlaceOnEventListRestricted>:
    {
    80001888:	87aa                	mv	a5,a0
    8000188a:	852e                	mv	a0,a1
    8000188c:	85b2                	mv	a1,a2
        configASSERT( pxEventList );
    8000188e:	cbb1                	beqz	a5,800018e2 <vTaskPlaceOnEventListRestricted+0x5a>
        listINSERT_END( pxEventList, &( pxCurrentTCB->xEventListItem ) );
    80001890:	6794                	ld	a3,8(a5)
    80001892:	00016717          	auipc	a4,0x16
    80001896:	2be70713          	addi	a4,a4,702 # 80017b50 <pxCurrentTCB>
    8000189a:	00073883          	ld	a7,0(a4)
    8000189e:	0106b803          	ld	a6,16(a3)
    800018a2:	6310                	ld	a2,0(a4)
    800018a4:	02d8bc23          	sd	a3,56(a7)
    800018a8:	00073883          	ld	a7,0(a4)
    800018ac:	05063023          	sd	a6,64(a2)
    800018b0:	0106be03          	ld	t3,16(a3)
    800018b4:	00073803          	ld	a6,0(a4)
    800018b8:	6390                	ld	a2,0(a5)
    800018ba:	00073303          	ld	t1,0(a4)
    800018be:	03088713          	addi	a4,a7,48
    800018c2:	00ee3423          	sd	a4,8(t3)
    800018c6:	03080713          	addi	a4,a6,48
    800018ca:	ea98                	sd	a4,16(a3)
    800018cc:	04f33823          	sd	a5,80(t1)
    800018d0:	00160713          	addi	a4,a2,1
    800018d4:	e398                	sd	a4,0(a5)
        if( xWaitIndefinitely != pdFALSE )
    800018d6:	c191                	beqz	a1,800018da <vTaskPlaceOnEventListRestricted+0x52>
            xTicksToWait = portMAX_DELAY;
    800018d8:	557d                	li	a0,-1
        prvAddCurrentTaskToDelayedList( xTicksToWait, xWaitIndefinitely );
    800018da:	fffff317          	auipc	t1,0xfffff
    800018de:	d5830067          	jr	-680(t1) # 80000632 <prvAddCurrentTaskToDelayedList>
        configASSERT( pxEventList );
    800018e2:	30047073          	csrci	mstatus,8
    800018e6:	a001                	j	800018e6 <vTaskPlaceOnEventListRestricted+0x5e>

00000000800018e8 <xTaskRemoveFromEventList>:
    pxUnblockedTCB = listGET_OWNER_OF_HEAD_ENTRY( pxEventList );
    800018e8:	6d1c                	ld	a5,24(a0)
    800018ea:	6f9c                	ld	a5,24(a5)
    configASSERT( pxUnblockedTCB );
    800018ec:	10078b63          	beqz	a5,80001a02 <xTaskRemoveFromEventList+0x11a>
    listREMOVE_ITEM( &( pxUnblockedTCB->xEventListItem ) );
    800018f0:	6bb8                	ld	a4,80(a5)
    800018f2:	7f90                	ld	a2,56(a5)
    800018f4:	63b4                	ld	a3,64(a5)
    800018f6:	6708                	ld	a0,8(a4)
    800018f8:	03078593          	addi	a1,a5,48
    800018fc:	ea14                	sd	a3,16(a2)
    800018fe:	e690                	sd	a2,8(a3)
    80001900:	0eb50463          	beq	a0,a1,800019e8 <xTaskRemoveFromEventList+0x100>
    80001904:	6314                	ld	a3,0(a4)
    80001906:	0407b823          	sd	zero,80(a5)
    if( uxSchedulerSuspended == ( UBaseType_t ) 0U )
    8000190a:	00016617          	auipc	a2,0x16
    8000190e:	1d663603          	ld	a2,470(a2) # 80017ae0 <uxSchedulerSuspended>
    listREMOVE_ITEM( &( pxUnblockedTCB->xEventListItem ) );
    80001912:	16fd                	addi	a3,a3,-1
    80001914:	e314                	sd	a3,0(a4)
        prvAddTaskToReadyList( pxUnblockedTCB );
    80001916:	6fb8                	ld	a4,88(a5)
    if( uxSchedulerSuspended == ( UBaseType_t ) 0U )
    80001918:	ca31                	beqz	a2,8000196c <xTaskRemoveFromEventList+0x84>
        listINSERT_END( &( xPendingReadyList ), &( pxUnblockedTCB->xEventListItem ) );
    8000191a:	00005617          	auipc	a2,0x5
    8000191e:	f5660613          	addi	a2,a2,-170 # 80006870 <xSuspendedTaskList>
    80001922:	12063683          	ld	a3,288(a2)
    80001926:	11863503          	ld	a0,280(a2)
    8000192a:	0106b803          	ld	a6,16(a3)
    8000192e:	ff94                	sd	a3,56(a5)
    80001930:	0505                	addi	a0,a0,1
    80001932:	0507b023          	sd	a6,64(a5)
    80001936:	0106b803          	ld	a6,16(a3)
    8000193a:	10a63c23          	sd	a0,280(a2)
    8000193e:	00b83423          	sd	a1,8(a6)
    80001942:	ea8c                	sd	a1,16(a3)
    80001944:	00005697          	auipc	a3,0x5
    80001948:	04468693          	addi	a3,a3,68 # 80006988 <xPendingReadyList>
    8000194c:	ebb4                	sd	a3,80(a5)
        if( pxUnblockedTCB->uxPriority > pxCurrentTCB->uxPriority )
    8000194e:	00016797          	auipc	a5,0x16
    80001952:	2027b783          	ld	a5,514(a5) # 80017b50 <pxCurrentTCB>
    80001956:	6fbc                	ld	a5,88(a5)
            xReturn = pdFALSE;
    80001958:	4501                	li	a0,0
        if( pxUnblockedTCB->uxPriority > pxCurrentTCB->uxPriority )
    8000195a:	00e7f863          	bgeu	a5,a4,8000196a <xTaskRemoveFromEventList+0x82>
            xYieldPendings[ 0 ] = pdTRUE;
    8000195e:	4785                	li	a5,1
    80001960:	00016717          	auipc	a4,0x16
    80001964:	1af73423          	sd	a5,424(a4) # 80017b08 <xYieldPendings>
            xReturn = pdTRUE;
    80001968:	4505                	li	a0,1
}
    8000196a:	8082                	ret
        listREMOVE_ITEM( &( pxUnblockedTCB->xStateListItem ) );
    8000196c:	6f90                	ld	a2,24(a5)
    8000196e:	6b94                	ld	a3,16(a5)
    80001970:	7788                	ld	a0,40(a5)
    80001972:	00878813          	addi	a6,a5,8
    80001976:	ea90                	sd	a2,16(a3)
    80001978:	6f90                	ld	a2,24(a5)
    8000197a:	650c                	ld	a1,8(a0)
    8000197c:	e614                	sd	a3,8(a2)
    8000197e:	09058563          	beq	a1,a6,80001a08 <xTaskRemoveFromEventList+0x120>
        prvAddTaskToReadyList( pxUnblockedTCB );
    80001982:	00271693          	slli	a3,a4,0x2
    80001986:	96ba                	add	a3,a3,a4
    80001988:	068e                	slli	a3,a3,0x3
    8000198a:	00005617          	auipc	a2,0x5
    8000198e:	ee660613          	addi	a2,a2,-282 # 80006870 <xSuspendedTaskList>
    80001992:	9636                	add	a2,a2,a3
    80001994:	6e2c                	ld	a1,88(a2)
        listREMOVE_ITEM( &( pxUnblockedTCB->xStateListItem ) );
    80001996:	00053883          	ld	a7,0(a0)
        prvAddTaskToReadyList( pxUnblockedTCB );
    8000199a:	00016317          	auipc	t1,0x16
    8000199e:	18630313          	addi	t1,t1,390 # 80017b20 <uxTopReadyPriority>
    800019a2:	0105be03          	ld	t3,16(a1)
        listREMOVE_ITEM( &( pxUnblockedTCB->xStateListItem ) );
    800019a6:	18fd                	addi	a7,a7,-1
    800019a8:	01153023          	sd	a7,0(a0)
        prvAddTaskToReadyList( pxUnblockedTCB );
    800019ac:	01c7bc23          	sd	t3,24(a5)
    800019b0:	0105be03          	ld	t3,16(a1)
    800019b4:	eb8c                	sd	a1,16(a5)
    800019b6:	6a28                	ld	a0,80(a2)
    800019b8:	00033883          	ld	a7,0(t1)
    800019bc:	010e3423          	sd	a6,8(t3)
    800019c0:	0105b823          	sd	a6,16(a1)
    800019c4:	4585                	li	a1,1
    800019c6:	00005817          	auipc	a6,0x5
    800019ca:	efa80813          	addi	a6,a6,-262 # 800068c0 <pxReadyTasksLists>
    800019ce:	9836                	add	a6,a6,a3
    800019d0:	00e595b3          	sll	a1,a1,a4
    800019d4:	0307b423          	sd	a6,40(a5)
    800019d8:	0115e6b3          	or	a3,a1,a7
    800019dc:	00150793          	addi	a5,a0,1
    800019e0:	00d33023          	sd	a3,0(t1)
    800019e4:	ea3c                	sd	a5,80(a2)
    800019e6:	b7a5                	j	8000194e <xTaskRemoveFromEventList+0x66>
    listREMOVE_ITEM( &( pxUnblockedTCB->xEventListItem ) );
    800019e8:	e714                	sd	a3,8(a4)
    800019ea:	6314                	ld	a3,0(a4)
    800019ec:	0407b823          	sd	zero,80(a5)
    if( uxSchedulerSuspended == ( UBaseType_t ) 0U )
    800019f0:	00016617          	auipc	a2,0x16
    800019f4:	0f063603          	ld	a2,240(a2) # 80017ae0 <uxSchedulerSuspended>
    listREMOVE_ITEM( &( pxUnblockedTCB->xEventListItem ) );
    800019f8:	16fd                	addi	a3,a3,-1
    800019fa:	e314                	sd	a3,0(a4)
        prvAddTaskToReadyList( pxUnblockedTCB );
    800019fc:	6fb8                	ld	a4,88(a5)
    if( uxSchedulerSuspended == ( UBaseType_t ) 0U )
    800019fe:	fe11                	bnez	a2,8000191a <xTaskRemoveFromEventList+0x32>
    80001a00:	b7b5                	j	8000196c <xTaskRemoveFromEventList+0x84>
    configASSERT( pxUnblockedTCB );
    80001a02:	30047073          	csrci	mstatus,8
    80001a06:	a001                	j	80001a06 <xTaskRemoveFromEventList+0x11e>
        listREMOVE_ITEM( &( pxUnblockedTCB->xStateListItem ) );
    80001a08:	e510                	sd	a2,8(a0)
    80001a0a:	bfa5                	j	80001982 <xTaskRemoveFromEventList+0x9a>

0000000080001a0c <vTaskRemoveFromUnorderedEventList>:
    configASSERT( uxSchedulerSuspended != ( UBaseType_t ) 0U );
    80001a0c:	00016797          	auipc	a5,0x16
    80001a10:	0d47b783          	ld	a5,212(a5) # 80017ae0 <uxSchedulerSuspended>
    80001a14:	e781                	bnez	a5,80001a1c <vTaskRemoveFromUnorderedEventList+0x10>
    80001a16:	30047073          	csrci	mstatus,8
    80001a1a:	a001                	j	80001a1a <vTaskRemoveFromUnorderedEventList+0xe>
    listSET_LIST_ITEM_VALUE( pxEventListItem, xItemValue | taskEVENT_LIST_ITEM_VALUE_IN_USE );
    80001a1c:	4705                	li	a4,1
    80001a1e:	077e                	slli	a4,a4,0x1f
    pxUnblockedTCB = listGET_LIST_ITEM_OWNER( pxEventListItem );
    80001a20:	6d1c                	ld	a5,24(a0)
    listSET_LIST_ITEM_VALUE( pxEventListItem, xItemValue | taskEVENT_LIST_ITEM_VALUE_IN_USE );
    80001a22:	8dd9                	or	a1,a1,a4
    80001a24:	e10c                	sd	a1,0(a0)
    configASSERT( pxUnblockedTCB );
    80001a26:	cbcd                	beqz	a5,80001ad8 <vTaskRemoveFromUnorderedEventList+0xcc>
    listREMOVE_ITEM( pxEventListItem );
    80001a28:	6910                	ld	a2,16(a0)
    80001a2a:	6514                	ld	a3,8(a0)
    80001a2c:	7118                	ld	a4,32(a0)
    80001a2e:	ea90                	sd	a2,16(a3)
    80001a30:	6910                	ld	a2,16(a0)
    80001a32:	670c                	ld	a1,8(a4)
    80001a34:	e614                	sd	a3,8(a2)
    80001a36:	0aa58663          	beq	a1,a0,80001ae2 <vTaskRemoveFromUnorderedEventList+0xd6>
    80001a3a:	6314                	ld	a3,0(a4)
    listREMOVE_ITEM( &( pxUnblockedTCB->xStateListItem ) );
    80001a3c:	6b90                	ld	a2,16(a5)
    80001a3e:	6f8c                	ld	a1,24(a5)
    listREMOVE_ITEM( pxEventListItem );
    80001a40:	16fd                	addi	a3,a3,-1
    80001a42:	02053023          	sd	zero,32(a0)
    listREMOVE_ITEM( &( pxUnblockedTCB->xStateListItem ) );
    80001a46:	7788                	ld	a0,40(a5)
    listREMOVE_ITEM( pxEventListItem );
    80001a48:	e314                	sd	a3,0(a4)
    listREMOVE_ITEM( &( pxUnblockedTCB->xStateListItem ) );
    80001a4a:	ea0c                	sd	a1,16(a2)
    80001a4c:	6f98                	ld	a4,24(a5)
    80001a4e:	6514                	ld	a3,8(a0)
    80001a50:	00878813          	addi	a6,a5,8
    80001a54:	e710                	sd	a2,8(a4)
    80001a56:	09068463          	beq	a3,a6,80001ade <vTaskRemoveFromUnorderedEventList+0xd2>
    prvAddTaskToReadyList( pxUnblockedTCB );
    80001a5a:	6fb0                	ld	a2,88(a5)
    80001a5c:	00005697          	auipc	a3,0x5
    80001a60:	e1468693          	addi	a3,a3,-492 # 80006870 <xSuspendedTaskList>
    listREMOVE_ITEM( &( pxUnblockedTCB->xStateListItem ) );
    80001a64:	00053883          	ld	a7,0(a0)
    prvAddTaskToReadyList( pxUnblockedTCB );
    80001a68:	00261713          	slli	a4,a2,0x2
    80001a6c:	9732                	add	a4,a4,a2
    80001a6e:	070e                	slli	a4,a4,0x3
    80001a70:	96ba                	add	a3,a3,a4
    80001a72:	6eac                	ld	a1,88(a3)
    listREMOVE_ITEM( &( pxUnblockedTCB->xStateListItem ) );
    80001a74:	18fd                	addi	a7,a7,-1
    prvAddTaskToReadyList( pxUnblockedTCB );
    80001a76:	00016317          	auipc	t1,0x16
    80001a7a:	0aa30313          	addi	t1,t1,170 # 80017b20 <uxTopReadyPriority>
    80001a7e:	0105be03          	ld	t3,16(a1)
    listREMOVE_ITEM( &( pxUnblockedTCB->xStateListItem ) );
    80001a82:	01153023          	sd	a7,0(a0)
    prvAddTaskToReadyList( pxUnblockedTCB );
    80001a86:	00033503          	ld	a0,0(t1)
    80001a8a:	01c7bc23          	sd	t3,24(a5)
    80001a8e:	0105be83          	ld	t4,16(a1)
    80001a92:	4e05                	li	t3,1
    80001a94:	00ce18b3          	sll	a7,t3,a2
    80001a98:	eb8c                	sd	a1,16(a5)
    80001a9a:	00a8e8b3          	or	a7,a7,a0
    80001a9e:	01133023          	sd	a7,0(t1)
    80001aa2:	6aa8                	ld	a0,80(a3)
    80001aa4:	010eb423          	sd	a6,8(t4)
    80001aa8:	0105b823          	sd	a6,16(a1)
        if( pxUnblockedTCB->uxPriority > pxCurrentTCB->uxPriority )
    80001aac:	00016897          	auipc	a7,0x16
    80001ab0:	0a48b883          	ld	a7,164(a7) # 80017b50 <pxCurrentTCB>
    prvAddTaskToReadyList( pxUnblockedTCB );
    80001ab4:	00005597          	auipc	a1,0x5
    80001ab8:	e0c58593          	addi	a1,a1,-500 # 800068c0 <pxReadyTasksLists>
    80001abc:	972e                	add	a4,a4,a1
        if( pxUnblockedTCB->uxPriority > pxCurrentTCB->uxPriority )
    80001abe:	0588b583          	ld	a1,88(a7)
    prvAddTaskToReadyList( pxUnblockedTCB );
    80001ac2:	f798                	sd	a4,40(a5)
    80001ac4:	00150793          	addi	a5,a0,1
    80001ac8:	eabc                	sd	a5,80(a3)
        if( pxUnblockedTCB->uxPriority > pxCurrentTCB->uxPriority )
    80001aca:	00c5f663          	bgeu	a1,a2,80001ad6 <vTaskRemoveFromUnorderedEventList+0xca>
            xYieldPendings[ 0 ] = pdTRUE;
    80001ace:	00016797          	auipc	a5,0x16
    80001ad2:	03c7bd23          	sd	t3,58(a5) # 80017b08 <xYieldPendings>
}
    80001ad6:	8082                	ret
    configASSERT( pxUnblockedTCB );
    80001ad8:	30047073          	csrci	mstatus,8
    80001adc:	a001                	j	80001adc <vTaskRemoveFromUnorderedEventList+0xd0>
    listREMOVE_ITEM( &( pxUnblockedTCB->xStateListItem ) );
    80001ade:	e518                	sd	a4,8(a0)
    80001ae0:	bfad                	j	80001a5a <vTaskRemoveFromUnorderedEventList+0x4e>
    listREMOVE_ITEM( pxEventListItem );
    80001ae2:	e710                	sd	a2,8(a4)
    80001ae4:	bf99                	j	80001a3a <vTaskRemoveFromUnorderedEventList+0x2e>

0000000080001ae6 <vTaskSetTimeOutState>:
    configASSERT( pxTimeOut );
    80001ae6:	c51d                	beqz	a0,80001b14 <vTaskSetTimeOutState+0x2e>
    taskENTER_CRITICAL();
    80001ae8:	30047073          	csrci	mstatus,8
    80001aec:	00005717          	auipc	a4,0x5
    80001af0:	d7470713          	addi	a4,a4,-652 # 80006860 <xCriticalNesting>
    80001af4:	631c                	ld	a5,0(a4)
        pxTimeOut->xOverflowCount = xNumOfOverflows;
    80001af6:	00016697          	auipc	a3,0x16
    80001afa:	00a6b683          	ld	a3,10(a3) # 80017b00 <xNumOfOverflows>
    80001afe:	e114                	sd	a3,0(a0)
        pxTimeOut->xTimeOnEntering = xTickCount;
    80001b00:	00016697          	auipc	a3,0x16
    80001b04:	0286b683          	ld	a3,40(a3) # 80017b28 <xTickCount>
    80001b08:	e514                	sd	a3,8(a0)
    taskEXIT_CRITICAL();
    80001b0a:	e31c                	sd	a5,0(a4)
    80001b0c:	e399                	bnez	a5,80001b12 <vTaskSetTimeOutState+0x2c>
    80001b0e:	30046073          	csrsi	mstatus,8
}
    80001b12:	8082                	ret
    configASSERT( pxTimeOut );
    80001b14:	30047073          	csrci	mstatus,8
    80001b18:	a001                	j	80001b18 <vTaskSetTimeOutState+0x32>

0000000080001b1a <vTaskInternalSetTimeOutState>:
    pxTimeOut->xOverflowCount = xNumOfOverflows;
    80001b1a:	00016717          	auipc	a4,0x16
    80001b1e:	fe673703          	ld	a4,-26(a4) # 80017b00 <xNumOfOverflows>
    pxTimeOut->xTimeOnEntering = xTickCount;
    80001b22:	00016797          	auipc	a5,0x16
    80001b26:	0067b783          	ld	a5,6(a5) # 80017b28 <xTickCount>
    pxTimeOut->xOverflowCount = xNumOfOverflows;
    80001b2a:	e118                	sd	a4,0(a0)
    pxTimeOut->xTimeOnEntering = xTickCount;
    80001b2c:	e51c                	sd	a5,8(a0)
}
    80001b2e:	8082                	ret

0000000080001b30 <xTaskCheckForTimeOut>:
{
    80001b30:	87aa                	mv	a5,a0
    configASSERT( pxTimeOut );
    80001b32:	c159                	beqz	a0,80001bb8 <xTaskCheckForTimeOut+0x88>
    configASSERT( pxTicksToWait );
    80001b34:	cda9                	beqz	a1,80001b8e <xTaskCheckForTimeOut+0x5e>
    taskENTER_CRITICAL();
    80001b36:	30047073          	csrci	mstatus,8
    80001b3a:	00005697          	auipc	a3,0x5
    80001b3e:	d2668693          	addi	a3,a3,-730 # 80006860 <xCriticalNesting>
    80001b42:	6298                	ld	a4,0(a3)
        const TickType_t xConstTickCount = xTickCount;
    80001b44:	00016817          	auipc	a6,0x16
    80001b48:	fe480813          	addi	a6,a6,-28 # 80017b28 <xTickCount>
    80001b4c:	00083883          	ld	a7,0(a6)
    taskENTER_CRITICAL();
    80001b50:	00170613          	addi	a2,a4,1
    80001b54:	e290                	sd	a2,0(a3)
            if( *pxTicksToWait == portMAX_DELAY )
    80001b56:	6190                	ld	a2,0(a1)
    80001b58:	537d                	li	t1,-1
                xReturn = pdFALSE;
    80001b5a:	4501                	li	a0,0
            if( *pxTicksToWait == portMAX_DELAY )
    80001b5c:	02660463          	beq	a2,t1,80001b84 <xTaskCheckForTimeOut+0x54>
        if( ( xNumOfOverflows != pxTimeOut->xOverflowCount ) && ( xConstTickCount >= pxTimeOut->xTimeOnEntering ) )
    80001b60:	00016317          	auipc	t1,0x16
    80001b64:	fa030313          	addi	t1,t1,-96 # 80017b00 <xNumOfOverflows>
    80001b68:	00033703          	ld	a4,0(t1)
    80001b6c:	0007be03          	ld	t3,0(a5)
        const TickType_t xElapsedTime = xConstTickCount - pxTimeOut->xTimeOnEntering;
    80001b70:	6788                	ld	a0,8(a5)
        if( ( xNumOfOverflows != pxTimeOut->xOverflowCount ) && ( xConstTickCount >= pxTimeOut->xTimeOnEntering ) )
    80001b72:	02ee0163          	beq	t3,a4,80001b94 <xTaskCheckForTimeOut+0x64>
    80001b76:	00a8ef63          	bltu	a7,a0,80001b94 <xTaskCheckForTimeOut+0x64>
            *pxTicksToWait = ( TickType_t ) 0;
    80001b7a:	0005b023          	sd	zero,0(a1)
    taskEXIT_CRITICAL();
    80001b7e:	6298                	ld	a4,0(a3)
            xReturn = pdTRUE;
    80001b80:	4505                	li	a0,1
    taskEXIT_CRITICAL();
    80001b82:	177d                	addi	a4,a4,-1
    80001b84:	e298                	sd	a4,0(a3)
    80001b86:	e319                	bnez	a4,80001b8c <xTaskCheckForTimeOut+0x5c>
    80001b88:	30046073          	csrsi	mstatus,8
}
    80001b8c:	8082                	ret
    configASSERT( pxTicksToWait );
    80001b8e:	30047073          	csrci	mstatus,8
    80001b92:	a001                	j	80001b92 <xTaskCheckForTimeOut+0x62>
        const TickType_t xElapsedTime = xConstTickCount - pxTimeOut->xTimeOnEntering;
    80001b94:	40a88733          	sub	a4,a7,a0
        else if( xElapsedTime < *pxTicksToWait )
    80001b98:	fec771e3          	bgeu	a4,a2,80001b7a <xTaskCheckForTimeOut+0x4a>
            *pxTicksToWait -= xElapsedTime;
    80001b9c:	41160733          	sub	a4,a2,a7
    80001ba0:	972a                	add	a4,a4,a0
    80001ba2:	e198                	sd	a4,0(a1)
    taskEXIT_CRITICAL();
    80001ba4:	6298                	ld	a4,0(a3)
    pxTimeOut->xOverflowCount = xNumOfOverflows;
    80001ba6:	00033583          	ld	a1,0(t1)
    pxTimeOut->xTimeOnEntering = xTickCount;
    80001baa:	00083603          	ld	a2,0(a6)
    taskEXIT_CRITICAL();
    80001bae:	177d                	addi	a4,a4,-1
    pxTimeOut->xOverflowCount = xNumOfOverflows;
    80001bb0:	e38c                	sd	a1,0(a5)
    pxTimeOut->xTimeOnEntering = xTickCount;
    80001bb2:	e790                	sd	a2,8(a5)
            xReturn = pdFALSE;
    80001bb4:	4501                	li	a0,0
    80001bb6:	b7f9                	j	80001b84 <xTaskCheckForTimeOut+0x54>
    configASSERT( pxTimeOut );
    80001bb8:	30047073          	csrci	mstatus,8
    80001bbc:	a001                	j	80001bbc <xTaskCheckForTimeOut+0x8c>

0000000080001bbe <vTaskMissedYield>:
    xYieldPendings[ portGET_CORE_ID() ] = pdTRUE;
    80001bbe:	4785                	li	a5,1
    80001bc0:	00016717          	auipc	a4,0x16
    80001bc4:	f4f73423          	sd	a5,-184(a4) # 80017b08 <xYieldPendings>
}
    80001bc8:	8082                	ret

0000000080001bca <xTaskGetCurrentTaskHandle>:
        }
    80001bca:	00016517          	auipc	a0,0x16
    80001bce:	f8653503          	ld	a0,-122(a0) # 80017b50 <pxCurrentTCB>
    80001bd2:	8082                	ret

0000000080001bd4 <xTaskGetCurrentTaskHandleForCore>:
        if( taskVALID_CORE_ID( xCoreID ) != pdFALSE )
    80001bd4:	e511                	bnez	a0,80001be0 <xTaskGetCurrentTaskHandleForCore+0xc>
                xReturn = pxCurrentTCB;
    80001bd6:	00016517          	auipc	a0,0x16
    80001bda:	f7a53503          	ld	a0,-134(a0) # 80017b50 <pxCurrentTCB>
    80001bde:	8082                	ret
        TaskHandle_t xReturn = NULL;
    80001be0:	4501                	li	a0,0
    }
    80001be2:	8082                	ret

0000000080001be4 <xTaskGetSchedulerState>:
        if( xSchedulerRunning == pdFALSE )
    80001be4:	00016797          	auipc	a5,0x16
    80001be8:	f347b783          	ld	a5,-204(a5) # 80017b18 <xSchedulerRunning>
            xReturn = taskSCHEDULER_NOT_STARTED;
    80001bec:	4505                	li	a0,1
        if( xSchedulerRunning == pdFALSE )
    80001bee:	cb81                	beqz	a5,80001bfe <xTaskGetSchedulerState+0x1a>
                if( uxSchedulerSuspended == ( UBaseType_t ) 0U )
    80001bf0:	00016517          	auipc	a0,0x16
    80001bf4:	ef053503          	ld	a0,-272(a0) # 80017ae0 <uxSchedulerSuspended>
    80001bf8:	00153513          	seqz	a0,a0
    80001bfc:	0506                	slli	a0,a0,0x1
    }
    80001bfe:	8082                	ret

0000000080001c00 <xTaskPriorityInherit>:
        if( pxMutexHolder != NULL )
    80001c00:	c925                	beqz	a0,80001c70 <xTaskPriorityInherit+0x70>
    {
    80001c02:	7179                	addi	sp,sp,-48
    80001c04:	ec26                	sd	s1,24(sp)
            if( pxMutexHolderTCB->uxPriority < pxCurrentTCB->uxPriority )
    80001c06:	00016497          	auipc	s1,0x16
    80001c0a:	f4a48493          	addi	s1,s1,-182 # 80017b50 <pxCurrentTCB>
    80001c0e:	609c                	ld	a5,0(s1)
    80001c10:	6d38                	ld	a4,88(a0)
    {
    80001c12:	f022                	sd	s0,32(sp)
            if( pxMutexHolderTCB->uxPriority < pxCurrentTCB->uxPriority )
    80001c14:	6fbc                	ld	a5,88(a5)
    {
    80001c16:	f406                	sd	ra,40(sp)
    80001c18:	e84a                	sd	s2,16(sp)
    80001c1a:	e44e                	sd	s3,8(sp)
    80001c1c:	842a                	mv	s0,a0
            if( pxMutexHolderTCB->uxPriority < pxCurrentTCB->uxPriority )
    80001c1e:	00f76e63          	bltu	a4,a5,80001c3a <xTaskPriorityInherit+0x3a>
                if( pxMutexHolderTCB->uxBasePriority < pxCurrentTCB->uxPriority )
    80001c22:	609c                	ld	a5,0(s1)
    80001c24:	7d28                	ld	a0,120(a0)
    80001c26:	6fbc                	ld	a5,88(a5)
    80001c28:	00f53533          	sltu	a0,a0,a5
    }
    80001c2c:	70a2                	ld	ra,40(sp)
    80001c2e:	7402                	ld	s0,32(sp)
    80001c30:	64e2                	ld	s1,24(sp)
    80001c32:	6942                	ld	s2,16(sp)
    80001c34:	69a2                	ld	s3,8(sp)
    80001c36:	6145                	addi	sp,sp,48
    80001c38:	8082                	ret
                if( ( listGET_LIST_ITEM_VALUE( &( pxMutexHolderTCB->xEventListItem ) ) & taskEVENT_LIST_ITEM_VALUE_IN_USE ) == ( ( TickType_t ) 0U ) )
    80001c3a:	791c                	ld	a5,48(a0)
    80001c3c:	01f7d79b          	srliw	a5,a5,0x1f
    80001c40:	cb95                	beqz	a5,80001c74 <xTaskPriorityInherit+0x74>
                if( listIS_CONTAINED_WITHIN( &( pxReadyTasksLists[ pxMutexHolderTCB->uxPriority ] ), &( pxMutexHolderTCB->xStateListItem ) ) != pdFALSE )
    80001c42:	00271793          	slli	a5,a4,0x2
    80001c46:	97ba                	add	a5,a5,a4
    80001c48:	7418                	ld	a4,40(s0)
    80001c4a:	00005917          	auipc	s2,0x5
    80001c4e:	c7690913          	addi	s2,s2,-906 # 800068c0 <pxReadyTasksLists>
    80001c52:	078e                	slli	a5,a5,0x3
    80001c54:	97ca                	add	a5,a5,s2
    80001c56:	02f70563          	beq	a4,a5,80001c80 <xTaskPriorityInherit+0x80>
                    pxMutexHolderTCB->uxPriority = pxCurrentTCB->uxPriority;
    80001c5a:	609c                	ld	a5,0(s1)
    }
    80001c5c:	70a2                	ld	ra,40(sp)
    80001c5e:	64e2                	ld	s1,24(sp)
                    pxMutexHolderTCB->uxPriority = pxCurrentTCB->uxPriority;
    80001c60:	6fbc                	ld	a5,88(a5)
    }
    80001c62:	6942                	ld	s2,16(sp)
    80001c64:	69a2                	ld	s3,8(sp)
                    pxMutexHolderTCB->uxPriority = pxCurrentTCB->uxPriority;
    80001c66:	ec3c                	sd	a5,88(s0)
    }
    80001c68:	7402                	ld	s0,32(sp)
                xReturn = pdTRUE;
    80001c6a:	4505                	li	a0,1
    }
    80001c6c:	6145                	addi	sp,sp,48
    80001c6e:	8082                	ret
        BaseType_t xReturn = pdFALSE;
    80001c70:	4501                	li	a0,0
    }
    80001c72:	8082                	ret
                    listSET_LIST_ITEM_VALUE( &( pxMutexHolderTCB->xEventListItem ), ( TickType_t ) configMAX_PRIORITIES - ( TickType_t ) pxCurrentTCB->uxPriority );
    80001c74:	609c                	ld	a5,0(s1)
    80001c76:	6fb4                	ld	a3,88(a5)
    80001c78:	4795                	li	a5,5
    80001c7a:	8f95                	sub	a5,a5,a3
    80001c7c:	f91c                	sd	a5,48(a0)
    80001c7e:	b7d1                	j	80001c42 <xTaskPriorityInherit+0x42>
                    if( uxListRemove( &( pxMutexHolderTCB->xStateListItem ) ) == ( UBaseType_t ) 0 )
    80001c80:	00840993          	addi	s3,s0,8
    80001c84:	854e                	mv	a0,s3
    80001c86:	00001097          	auipc	ra,0x1
    80001c8a:	9aa080e7          	jalr	-1622(ra) # 80002630 <uxListRemove>
    80001c8e:	00016897          	auipc	a7,0x16
    80001c92:	e9288893          	addi	a7,a7,-366 # 80017b20 <uxTopReadyPriority>
    80001c96:	ed01                	bnez	a0,80001cae <xTaskPriorityInherit+0xae>
                        portRESET_READY_PRIORITY( pxMutexHolderTCB->uxPriority, uxTopReadyPriority );
    80001c98:	6c34                	ld	a3,88(s0)
    80001c9a:	0008b703          	ld	a4,0(a7)
    80001c9e:	4785                	li	a5,1
    80001ca0:	00d797b3          	sll	a5,a5,a3
    80001ca4:	fff7c793          	not	a5,a5
    80001ca8:	8ff9                	and	a5,a5,a4
    80001caa:	00f8b023          	sd	a5,0(a7)
                    pxMutexHolderTCB->uxPriority = pxCurrentTCB->uxPriority;
    80001cae:	609c                	ld	a5,0(s1)
                    prvAddTaskToReadyList( pxMutexHolderTCB );
    80001cb0:	00005717          	auipc	a4,0x5
    80001cb4:	bc070713          	addi	a4,a4,-1088 # 80006870 <xSuspendedTaskList>
    80001cb8:	4685                	li	a3,1
                    pxMutexHolderTCB->uxPriority = pxCurrentTCB->uxPriority;
    80001cba:	6fac                	ld	a1,88(a5)
                    prvAddTaskToReadyList( pxMutexHolderTCB );
    80001cbc:	0008b303          	ld	t1,0(a7)
                xReturn = pdTRUE;
    80001cc0:	4505                	li	a0,1
                    prvAddTaskToReadyList( pxMutexHolderTCB );
    80001cc2:	00259793          	slli	a5,a1,0x2
    80001cc6:	97ae                	add	a5,a5,a1
    80001cc8:	078e                	slli	a5,a5,0x3
    80001cca:	973e                	add	a4,a4,a5
    80001ccc:	6f30                	ld	a2,88(a4)
    80001cce:	05073803          	ld	a6,80(a4)
                    pxMutexHolderTCB->uxPriority = pxCurrentTCB->uxPriority;
    80001cd2:	ec2c                	sd	a1,88(s0)
                    prvAddTaskToReadyList( pxMutexHolderTCB );
    80001cd4:	01063e03          	ld	t3,16(a2)
    80001cd8:	00b696b3          	sll	a3,a3,a1
    80001cdc:	e810                	sd	a2,16(s0)
    80001cde:	01c43c23          	sd	t3,24(s0)
    80001ce2:	6a0c                	ld	a1,16(a2)
    80001ce4:	993e                	add	s2,s2,a5
    80001ce6:	0066e7b3          	or	a5,a3,t1
    80001cea:	0135b423          	sd	s3,8(a1)
    80001cee:	01363823          	sd	s3,16(a2)
    80001cf2:	03243423          	sd	s2,40(s0)
    80001cf6:	00180693          	addi	a3,a6,1
    80001cfa:	00f8b023          	sd	a5,0(a7)
    80001cfe:	eb34                	sd	a3,80(a4)
    80001d00:	b735                	j	80001c2c <xTaskPriorityInherit+0x2c>

0000000080001d02 <xTaskPriorityDisinherit>:
        if( pxMutexHolder != NULL )
    80001d02:	c129                	beqz	a0,80001d44 <xTaskPriorityDisinherit+0x42>
    {
    80001d04:	1101                	addi	sp,sp,-32
    80001d06:	e822                	sd	s0,16(sp)
    80001d08:	ec06                	sd	ra,24(sp)
    80001d0a:	e426                	sd	s1,8(sp)
            configASSERT( pxTCB == pxCurrentTCB );
    80001d0c:	00016797          	auipc	a5,0x16
    80001d10:	e447b783          	ld	a5,-444(a5) # 80017b50 <pxCurrentTCB>
    80001d14:	842a                	mv	s0,a0
    80001d16:	00a78563          	beq	a5,a0,80001d20 <xTaskPriorityDisinherit+0x1e>
    80001d1a:	30047073          	csrci	mstatus,8
    80001d1e:	a001                	j	80001d1e <xTaskPriorityDisinherit+0x1c>
            configASSERT( pxTCB->uxMutexesHeld );
    80001d20:	63dc                	ld	a5,128(a5)
    80001d22:	cf91                	beqz	a5,80001d3e <xTaskPriorityDisinherit+0x3c>
            if( pxTCB->uxPriority != pxTCB->uxBasePriority )
    80001d24:	6d34                	ld	a3,88(a0)
    80001d26:	7d38                	ld	a4,120(a0)
            ( pxTCB->uxMutexesHeld )--;
    80001d28:	17fd                	addi	a5,a5,-1
    80001d2a:	e15c                	sd	a5,128(a0)
            if( pxTCB->uxPriority != pxTCB->uxBasePriority )
    80001d2c:	00e68363          	beq	a3,a4,80001d32 <xTaskPriorityDisinherit+0x30>
                if( pxTCB->uxMutexesHeld == ( UBaseType_t ) 0 )
    80001d30:	cf81                	beqz	a5,80001d48 <xTaskPriorityDisinherit+0x46>
        BaseType_t xReturn = pdFALSE;
    80001d32:	4501                	li	a0,0
    }
    80001d34:	60e2                	ld	ra,24(sp)
    80001d36:	6442                	ld	s0,16(sp)
    80001d38:	64a2                	ld	s1,8(sp)
    80001d3a:	6105                	addi	sp,sp,32
    80001d3c:	8082                	ret
            configASSERT( pxTCB->uxMutexesHeld );
    80001d3e:	30047073          	csrci	mstatus,8
    80001d42:	a001                	j	80001d42 <xTaskPriorityDisinherit+0x40>
        BaseType_t xReturn = pdFALSE;
    80001d44:	4501                	li	a0,0
    }
    80001d46:	8082                	ret
                    if( uxListRemove( &( pxTCB->xStateListItem ) ) == ( UBaseType_t ) 0 )
    80001d48:	00850493          	addi	s1,a0,8
    80001d4c:	8526                	mv	a0,s1
    80001d4e:	00001097          	auipc	ra,0x1
    80001d52:	8e2080e7          	jalr	-1822(ra) # 80002630 <uxListRemove>
    80001d56:	00016597          	auipc	a1,0x16
    80001d5a:	dca58593          	addi	a1,a1,-566 # 80017b20 <uxTopReadyPriority>
    80001d5e:	e911                	bnez	a0,80001d72 <xTaskPriorityDisinherit+0x70>
                        portRESET_READY_PRIORITY( pxTCB->uxPriority, uxTopReadyPriority );
    80001d60:	6c34                	ld	a3,88(s0)
    80001d62:	6198                	ld	a4,0(a1)
    80001d64:	4785                	li	a5,1
    80001d66:	00d797b3          	sll	a5,a5,a3
    80001d6a:	fff7c793          	not	a5,a5
    80001d6e:	8ff9                	and	a5,a5,a4
    80001d70:	e19c                	sd	a5,0(a1)
                    pxTCB->uxPriority = pxTCB->uxBasePriority;
    80001d72:	7c30                	ld	a2,120(s0)
                    prvAddTaskToReadyList( pxTCB );
    80001d74:	00005717          	auipc	a4,0x5
    80001d78:	afc70713          	addi	a4,a4,-1284 # 80006870 <xSuspendedTaskList>
                    listSET_LIST_ITEM_VALUE( &( pxTCB->xEventListItem ), ( TickType_t ) configMAX_PRIORITIES - ( TickType_t ) pxTCB->uxPriority );
    80001d7c:	4515                	li	a0,5
                    prvAddTaskToReadyList( pxTCB );
    80001d7e:	00261793          	slli	a5,a2,0x2
    80001d82:	97b2                	add	a5,a5,a2
    80001d84:	078e                	slli	a5,a5,0x3
    80001d86:	973e                	add	a4,a4,a5
    80001d88:	6f34                	ld	a3,88(a4)
                    listSET_LIST_ITEM_VALUE( &( pxTCB->xEventListItem ), ( TickType_t ) configMAX_PRIORITIES - ( TickType_t ) pxTCB->uxPriority );
    80001d8a:	8d11                	sub	a0,a0,a2
                    pxTCB->uxPriority = pxTCB->uxBasePriority;
    80001d8c:	ec30                	sd	a2,88(s0)
                    prvAddTaskToReadyList( pxTCB );
    80001d8e:	0106b803          	ld	a6,16(a3)
                    listSET_LIST_ITEM_VALUE( &( pxTCB->xEventListItem ), ( TickType_t ) configMAX_PRIORITIES - ( TickType_t ) pxTCB->uxPriority );
    80001d92:	f808                	sd	a0,48(s0)
                    prvAddTaskToReadyList( pxTCB );
    80001d94:	e814                	sd	a3,16(s0)
    80001d96:	01043c23          	sd	a6,24(s0)
    80001d9a:	0106b883          	ld	a7,16(a3)
    80001d9e:	6b28                	ld	a0,80(a4)
    80001da0:	0005b803          	ld	a6,0(a1)
    80001da4:	0098b423          	sd	s1,8(a7)
    80001da8:	ea84                	sd	s1,16(a3)
    80001daa:	4685                	li	a3,1
    80001dac:	00c696b3          	sll	a3,a3,a2
    80001db0:	00005617          	auipc	a2,0x5
    80001db4:	b1060613          	addi	a2,a2,-1264 # 800068c0 <pxReadyTasksLists>
    80001db8:	963e                	add	a2,a2,a5
    80001dba:	f410                	sd	a2,40(s0)
    80001dbc:	0106e7b3          	or	a5,a3,a6
    80001dc0:	00150693          	addi	a3,a0,1
    80001dc4:	e19c                	sd	a5,0(a1)
    80001dc6:	eb34                	sd	a3,80(a4)
                    xReturn = pdTRUE;
    80001dc8:	4505                	li	a0,1
        return xReturn;
    80001dca:	b7ad                	j	80001d34 <xTaskPriorityDisinherit+0x32>

0000000080001dcc <vTaskPriorityDisinheritAfterTimeout>:
        if( pxMutexHolder != NULL )
    80001dcc:	c565                	beqz	a0,80001eb4 <vTaskPriorityDisinheritAfterTimeout+0xe8>
            configASSERT( pxTCB->uxMutexesHeld );
    80001dce:	615c                	ld	a5,128(a0)
    {
    80001dd0:	7179                	addi	sp,sp,-48
    80001dd2:	f022                	sd	s0,32(sp)
    80001dd4:	f406                	sd	ra,40(sp)
    80001dd6:	ec26                	sd	s1,24(sp)
    80001dd8:	e84a                	sd	s2,16(sp)
    80001dda:	e44e                	sd	s3,8(sp)
    80001ddc:	842a                	mv	s0,a0
            configASSERT( pxTCB->uxMutexesHeld );
    80001dde:	e781                	bnez	a5,80001de6 <vTaskPriorityDisinheritAfterTimeout+0x1a>
    80001de0:	30047073          	csrci	mstatus,8
    80001de4:	a001                	j	80001de4 <vTaskPriorityDisinheritAfterTimeout+0x18>
            if( pxTCB->uxBasePriority < uxHighestPriorityWaitingTask )
    80001de6:	7d38                	ld	a4,120(a0)
    80001de8:	00b76f63          	bltu	a4,a1,80001e06 <vTaskPriorityDisinheritAfterTimeout+0x3a>
            if( pxTCB->uxPriority != uxPriorityToUse )
    80001dec:	6c24                	ld	s1,88(s0)
    80001dee:	00e48563          	beq	s1,a4,80001df8 <vTaskPriorityDisinheritAfterTimeout+0x2c>
                if( pxTCB->uxMutexesHeld == uxOnlyOneMutexHeld )
    80001df2:	4685                	li	a3,1
    80001df4:	00d78b63          	beq	a5,a3,80001e0a <vTaskPriorityDisinheritAfterTimeout+0x3e>
    }
    80001df8:	70a2                	ld	ra,40(sp)
    80001dfa:	7402                	ld	s0,32(sp)
    80001dfc:	64e2                	ld	s1,24(sp)
    80001dfe:	6942                	ld	s2,16(sp)
    80001e00:	69a2                	ld	s3,8(sp)
    80001e02:	6145                	addi	sp,sp,48
    80001e04:	8082                	ret
    80001e06:	872e                	mv	a4,a1
    80001e08:	b7d5                	j	80001dec <vTaskPriorityDisinheritAfterTimeout+0x20>
                    configASSERT( pxTCB != pxCurrentTCB );
    80001e0a:	00016697          	auipc	a3,0x16
    80001e0e:	d466b683          	ld	a3,-698(a3) # 80017b50 <pxCurrentTCB>
    80001e12:	0a868263          	beq	a3,s0,80001eb6 <vTaskPriorityDisinheritAfterTimeout+0xea>
                    if( ( listGET_LIST_ITEM_VALUE( &( pxTCB->xEventListItem ) ) & taskEVENT_LIST_ITEM_VALUE_IN_USE ) == ( ( TickType_t ) 0U ) )
    80001e16:	7814                	ld	a3,48(s0)
    80001e18:	07fe                	slli	a5,a5,0x1f
                    pxTCB->uxPriority = uxPriorityToUse;
    80001e1a:	ec38                	sd	a4,88(s0)
                    if( ( listGET_LIST_ITEM_VALUE( &( pxTCB->xEventListItem ) ) & taskEVENT_LIST_ITEM_VALUE_IN_USE ) == ( ( TickType_t ) 0U ) )
    80001e1c:	8ff5                	and	a5,a5,a3
    80001e1e:	e781                	bnez	a5,80001e26 <vTaskPriorityDisinheritAfterTimeout+0x5a>
                        listSET_LIST_ITEM_VALUE( &( pxTCB->xEventListItem ), ( TickType_t ) configMAX_PRIORITIES - ( TickType_t ) uxPriorityToUse );
    80001e20:	4795                	li	a5,5
    80001e22:	8f99                	sub	a5,a5,a4
    80001e24:	f81c                	sd	a5,48(s0)
                    if( listIS_CONTAINED_WITHIN( &( pxReadyTasksLists[ uxPriorityUsedOnEntry ] ), &( pxTCB->xStateListItem ) ) != pdFALSE )
    80001e26:	00249793          	slli	a5,s1,0x2
    80001e2a:	97a6                	add	a5,a5,s1
    80001e2c:	7418                	ld	a4,40(s0)
    80001e2e:	00005917          	auipc	s2,0x5
    80001e32:	a9290913          	addi	s2,s2,-1390 # 800068c0 <pxReadyTasksLists>
    80001e36:	078e                	slli	a5,a5,0x3
    80001e38:	97ca                	add	a5,a5,s2
    80001e3a:	faf71fe3          	bne	a4,a5,80001df8 <vTaskPriorityDisinheritAfterTimeout+0x2c>
                        if( uxListRemove( &( pxTCB->xStateListItem ) ) == ( UBaseType_t ) 0 )
    80001e3e:	00840993          	addi	s3,s0,8
    80001e42:	854e                	mv	a0,s3
    80001e44:	00000097          	auipc	ra,0x0
    80001e48:	7ec080e7          	jalr	2028(ra) # 80002630 <uxListRemove>
    80001e4c:	00016617          	auipc	a2,0x16
    80001e50:	cd460613          	addi	a2,a2,-812 # 80017b20 <uxTopReadyPriority>
    80001e54:	e909                	bnez	a0,80001e66 <vTaskPriorityDisinheritAfterTimeout+0x9a>
                            portRESET_READY_PRIORITY( uxPriorityUsedOnEntry, uxTopReadyPriority );
    80001e56:	6218                	ld	a4,0(a2)
    80001e58:	4785                	li	a5,1
    80001e5a:	009797b3          	sll	a5,a5,s1
    80001e5e:	fff7c793          	not	a5,a5
    80001e62:	8ff9                	and	a5,a5,a4
    80001e64:	e21c                	sd	a5,0(a2)
                        prvAddTaskToReadyList( pxTCB );
    80001e66:	05843803          	ld	a6,88(s0)
    80001e6a:	00005717          	auipc	a4,0x5
    80001e6e:	a0670713          	addi	a4,a4,-1530 # 80006870 <xSuspendedTaskList>
    80001e72:	4685                	li	a3,1
    80001e74:	00281793          	slli	a5,a6,0x2
    80001e78:	97c2                	add	a5,a5,a6
    80001e7a:	078e                	slli	a5,a5,0x3
    80001e7c:	973e                	add	a4,a4,a5
    80001e7e:	6f2c                	ld	a1,88(a4)
    80001e80:	6b28                	ld	a0,80(a4)
    80001e82:	010696b3          	sll	a3,a3,a6
    80001e86:	0105b303          	ld	t1,16(a1)
    80001e8a:	00063883          	ld	a7,0(a2)
    80001e8e:	e80c                	sd	a1,16(s0)
    80001e90:	00643c23          	sd	t1,24(s0)
    80001e94:	0105b803          	ld	a6,16(a1)
    80001e98:	993e                	add	s2,s2,a5
    80001e9a:	0116e7b3          	or	a5,a3,a7
    80001e9e:	01383423          	sd	s3,8(a6)
    80001ea2:	0135b823          	sd	s3,16(a1)
    80001ea6:	03243423          	sd	s2,40(s0)
    80001eaa:	00150693          	addi	a3,a0,1
    80001eae:	e21c                	sd	a5,0(a2)
    80001eb0:	eb34                	sd	a3,80(a4)
    }
    80001eb2:	b799                	j	80001df8 <vTaskPriorityDisinheritAfterTimeout+0x2c>
    80001eb4:	8082                	ret
                    configASSERT( pxTCB != pxCurrentTCB );
    80001eb6:	30047073          	csrci	mstatus,8
    80001eba:	a001                	j	80001eba <vTaskPriorityDisinheritAfterTimeout+0xee>

0000000080001ebc <uxTaskResetEventItemValue>:
    uxReturn = listGET_LIST_ITEM_VALUE( &( pxCurrentTCB->xEventListItem ) );
    80001ebc:	00016797          	auipc	a5,0x16
    80001ec0:	c9478793          	addi	a5,a5,-876 # 80017b50 <pxCurrentTCB>
    80001ec4:	6390                	ld	a2,0(a5)
    listSET_LIST_ITEM_VALUE( &( pxCurrentTCB->xEventListItem ), ( ( TickType_t ) configMAX_PRIORITIES - ( TickType_t ) pxCurrentTCB->uxPriority ) );
    80001ec6:	6394                	ld	a3,0(a5)
    80001ec8:	6398                	ld	a4,0(a5)
    80001eca:	4795                	li	a5,5
    80001ecc:	6eb4                	ld	a3,88(a3)
    uxReturn = listGET_LIST_ITEM_VALUE( &( pxCurrentTCB->xEventListItem ) );
    80001ece:	7a08                	ld	a0,48(a2)
    listSET_LIST_ITEM_VALUE( &( pxCurrentTCB->xEventListItem ), ( ( TickType_t ) configMAX_PRIORITIES - ( TickType_t ) pxCurrentTCB->uxPriority ) );
    80001ed0:	8f95                	sub	a5,a5,a3
    80001ed2:	fb1c                	sd	a5,48(a4)
}
    80001ed4:	8082                	ret

0000000080001ed6 <pvTaskIncrementMutexHeldCount>:
        pxTCB = pxCurrentTCB;
    80001ed6:	00016517          	auipc	a0,0x16
    80001eda:	c7a53503          	ld	a0,-902(a0) # 80017b50 <pxCurrentTCB>
        if( pxTCB != NULL )
    80001ede:	c501                	beqz	a0,80001ee6 <pvTaskIncrementMutexHeldCount+0x10>
            ( pxTCB->uxMutexesHeld )++;
    80001ee0:	615c                	ld	a5,128(a0)
    80001ee2:	0785                	addi	a5,a5,1
    80001ee4:	e15c                	sd	a5,128(a0)
    }
    80001ee6:	8082                	ret

0000000080001ee8 <ulTaskGenericNotifyTake>:
        configASSERT( uxIndexToWaitOn < configTASK_NOTIFICATION_ARRAY_ENTRIES );
    80001ee8:	c501                	beqz	a0,80001ef0 <ulTaskGenericNotifyTake+0x8>
    80001eea:	30047073          	csrci	mstatus,8
    80001eee:	a001                	j	80001eee <ulTaskGenericNotifyTake+0x6>
    {
    80001ef0:	7179                	addi	sp,sp,-48
    80001ef2:	ec26                	sd	s1,24(sp)
        if( ( pxCurrentTCB->ulNotifiedValue[ uxIndexToWaitOn ] == 0U ) && ( xTicksToWait > ( TickType_t ) 0 ) )
    80001ef4:	00016497          	auipc	s1,0x16
    80001ef8:	c5c48493          	addi	s1,s1,-932 # 80017b50 <pxCurrentTCB>
    80001efc:	609c                	ld	a5,0(s1)
    {
    80001efe:	f022                	sd	s0,32(sp)
    80001f00:	f406                	sd	ra,40(sp)
        if( ( pxCurrentTCB->ulNotifiedValue[ uxIndexToWaitOn ] == 0U ) && ( xTicksToWait > ( TickType_t ) 0 ) )
    80001f02:	0887a783          	lw	a5,136(a5)
    {
    80001f06:	e84a                	sd	s2,16(sp)
    80001f08:	e44e                	sd	s3,8(sp)
    80001f0a:	e052                	sd	s4,0(sp)
    80001f0c:	842e                	mv	s0,a1
        if( ( pxCurrentTCB->ulNotifiedValue[ uxIndexToWaitOn ] == 0U ) && ( xTicksToWait > ( TickType_t ) 0 ) )
    80001f0e:	c3a9                	beqz	a5,80001f50 <ulTaskGenericNotifyTake+0x68>
    80001f10:	00005917          	auipc	s2,0x5
    80001f14:	95090913          	addi	s2,s2,-1712 # 80006860 <xCriticalNesting>
        taskENTER_CRITICAL();
    80001f18:	30047073          	csrci	mstatus,8
            ulReturn = pxCurrentTCB->ulNotifiedValue[ uxIndexToWaitOn ];
    80001f1c:	609c                	ld	a5,0(s1)
        taskENTER_CRITICAL();
    80001f1e:	00093703          	ld	a4,0(s2)
            ulReturn = pxCurrentTCB->ulNotifiedValue[ uxIndexToWaitOn ];
    80001f22:	0887a783          	lw	a5,136(a5)
    80001f26:	0007851b          	sext.w	a0,a5
            if( ulReturn != 0U )
    80001f2a:	c789                	beqz	a5,80001f34 <ulTaskGenericNotifyTake+0x4c>
                    pxCurrentTCB->ulNotifiedValue[ uxIndexToWaitOn ] = ( uint32_t ) 0U;
    80001f2c:	609c                	ld	a5,0(s1)
                if( xClearCountOnExit != pdFALSE )
    80001f2e:	c051                	beqz	s0,80001fb2 <ulTaskGenericNotifyTake+0xca>
                    pxCurrentTCB->ulNotifiedValue[ uxIndexToWaitOn ] = ( uint32_t ) 0U;
    80001f30:	0807a423          	sw	zero,136(a5)
            pxCurrentTCB->ucNotifyState[ uxIndexToWaitOn ] = taskNOT_WAITING_NOTIFICATION;
    80001f34:	609c                	ld	a5,0(s1)
    80001f36:	08078623          	sb	zero,140(a5)
        taskEXIT_CRITICAL();
    80001f3a:	e319                	bnez	a4,80001f40 <ulTaskGenericNotifyTake+0x58>
    80001f3c:	30046073          	csrsi	mstatus,8
    }
    80001f40:	70a2                	ld	ra,40(sp)
    80001f42:	7402                	ld	s0,32(sp)
    80001f44:	64e2                	ld	s1,24(sp)
    80001f46:	6942                	ld	s2,16(sp)
    80001f48:	69a2                	ld	s3,8(sp)
    80001f4a:	6a02                	ld	s4,0(sp)
    80001f4c:	6145                	addi	sp,sp,48
    80001f4e:	8082                	ret
        if( ( pxCurrentTCB->ulNotifiedValue[ uxIndexToWaitOn ] == 0U ) && ( xTicksToWait > ( TickType_t ) 0 ) )
    80001f50:	d261                	beqz	a2,80001f10 <ulTaskGenericNotifyTake+0x28>
        uxSchedulerSuspended = ( UBaseType_t ) ( uxSchedulerSuspended + 1U );
    80001f52:	00016997          	auipc	s3,0x16
    80001f56:	b8e98993          	addi	s3,s3,-1138 # 80017ae0 <uxSchedulerSuspended>
    80001f5a:	0009b783          	ld	a5,0(s3)
    80001f5e:	0785                	addi	a5,a5,1
    80001f60:	00f9b023          	sd	a5,0(s3)
                taskENTER_CRITICAL();
    80001f64:	30047073          	csrci	mstatus,8
                    if( pxCurrentTCB->ulNotifiedValue[ uxIndexToWaitOn ] == 0U )
    80001f68:	6098                	ld	a4,0(s1)
                taskENTER_CRITICAL();
    80001f6a:	00005917          	auipc	s2,0x5
    80001f6e:	8f690913          	addi	s2,s2,-1802 # 80006860 <xCriticalNesting>
    80001f72:	00093783          	ld	a5,0(s2)
                    if( pxCurrentTCB->ulNotifiedValue[ uxIndexToWaitOn ] == 0U )
    80001f76:	08872703          	lw	a4,136(a4)
    80001f7a:	e329                	bnez	a4,80001fbc <ulTaskGenericNotifyTake+0xd4>
                        pxCurrentTCB->ucNotifyState[ uxIndexToWaitOn ] = taskWAITING_NOTIFICATION;
    80001f7c:	6098                	ld	a4,0(s1)
    80001f7e:	4685                	li	a3,1
    80001f80:	08d70623          	sb	a3,140(a4)
                taskEXIT_CRITICAL();
    80001f84:	e399                	bnez	a5,80001f8a <ulTaskGenericNotifyTake+0xa2>
    80001f86:	30046073          	csrsi	mstatus,8
                    prvAddCurrentTaskToDelayedList( xTicksToWait, pdTRUE );
    80001f8a:	4585                	li	a1,1
    80001f8c:	8532                	mv	a0,a2
    80001f8e:	ffffe097          	auipc	ra,0xffffe
    80001f92:	6a4080e7          	jalr	1700(ra) # 80000632 <prvAddCurrentTaskToDelayedList>
    80001f96:	4a05                	li	s4,1
        taskENTER_CRITICAL();
    80001f98:	30047073          	csrci	mstatus,8
    80001f9c:	00093783          	ld	a5,0(s2)
            configASSERT( uxSchedulerSuspended != 0U );
    80001fa0:	0009b703          	ld	a4,0(s3)
        taskENTER_CRITICAL();
    80001fa4:	0785                	addi	a5,a5,1
    80001fa6:	00f93023          	sd	a5,0(s2)
            configASSERT( uxSchedulerSuspended != 0U );
    80001faa:	ef19                	bnez	a4,80001fc8 <ulTaskGenericNotifyTake+0xe0>
    80001fac:	30047073          	csrci	mstatus,8
    80001fb0:	a001                	j	80001fb0 <ulTaskGenericNotifyTake+0xc8>
                    pxCurrentTCB->ulNotifiedValue[ uxIndexToWaitOn ] = ulReturn - ( uint32_t ) 1;
    80001fb2:	fff5069b          	addiw	a3,a0,-1
    80001fb6:	08d7a423          	sw	a3,136(a5)
    80001fba:	bfad                	j	80001f34 <ulTaskGenericNotifyTake+0x4c>
        BaseType_t xAlreadyYielded, xShouldBlock = pdFALSE;
    80001fbc:	4a01                	li	s4,0
                taskEXIT_CRITICAL();
    80001fbe:	ffe9                	bnez	a5,80001f98 <ulTaskGenericNotifyTake+0xb0>
    80001fc0:	30046073          	csrsi	mstatus,8
        BaseType_t xAlreadyYielded, xShouldBlock = pdFALSE;
    80001fc4:	4a01                	li	s4,0
    80001fc6:	bfc9                	j	80001f98 <ulTaskGenericNotifyTake+0xb0>
    80001fc8:	fffff097          	auipc	ra,0xfffff
    80001fcc:	9ea080e7          	jalr	-1558(ra) # 800009b2 <xTaskResumeAll.part.0>
            if( ( xShouldBlock == pdTRUE ) && ( xAlreadyYielded == pdFALSE ) )
    80001fd0:	f40a04e3          	beqz	s4,80001f18 <ulTaskGenericNotifyTake+0x30>
    80001fd4:	f131                	bnez	a0,80001f18 <ulTaskGenericNotifyTake+0x30>
                taskYIELD_WITHIN_API();
    80001fd6:	00000073          	ecall
    80001fda:	bf3d                	j	80001f18 <ulTaskGenericNotifyTake+0x30>

0000000080001fdc <xTaskGenericNotifyWait>:
        configASSERT( uxIndexToWaitOn < configTASK_NOTIFICATION_ARRAY_ENTRIES );
    80001fdc:	c501                	beqz	a0,80001fe4 <xTaskGenericNotifyWait+0x8>
    80001fde:	30047073          	csrci	mstatus,8
    80001fe2:	a001                	j	80001fe2 <xTaskGenericNotifyWait+0x6>
    {
    80001fe4:	7139                	addi	sp,sp,-64
    80001fe6:	f822                	sd	s0,48(sp)
        if( ( pxCurrentTCB->ucNotifyState[ uxIndexToWaitOn ] != taskNOTIFICATION_RECEIVED ) && ( xTicksToWait > ( TickType_t ) 0 ) )
    80001fe8:	00016417          	auipc	s0,0x16
    80001fec:	b6840413          	addi	s0,s0,-1176 # 80017b50 <pxCurrentTCB>
    80001ff0:	6008                	ld	a0,0(s0)
    {
    80001ff2:	fc06                	sd	ra,56(sp)
    80001ff4:	f426                	sd	s1,40(sp)
    80001ff6:	f04a                	sd	s2,32(sp)
    80001ff8:	ec4e                	sd	s3,24(sp)
        if( ( pxCurrentTCB->ucNotifyState[ uxIndexToWaitOn ] != taskNOTIFICATION_RECEIVED ) && ( xTicksToWait > ( TickType_t ) 0 ) )
    80001ffa:	08c54503          	lbu	a0,140(a0)
    80001ffe:	4789                	li	a5,2
    80002000:	00f50363          	beq	a0,a5,80002006 <xTaskGenericNotifyWait+0x2a>
    80002004:	eb39                	bnez	a4,8000205a <xTaskGenericNotifyWait+0x7e>
    80002006:	00005497          	auipc	s1,0x5
    8000200a:	85a48493          	addi	s1,s1,-1958 # 80006860 <xCriticalNesting>
        taskENTER_CRITICAL();
    8000200e:	30047073          	csrci	mstatus,8
    80002012:	609c                	ld	a5,0(s1)
            if( pulNotificationValue != NULL )
    80002014:	c689                	beqz	a3,8000201e <xTaskGenericNotifyWait+0x42>
                *pulNotificationValue = pxCurrentTCB->ulNotifiedValue[ uxIndexToWaitOn ];
    80002016:	6018                	ld	a4,0(s0)
    80002018:	08872703          	lw	a4,136(a4)
    8000201c:	c298                	sw	a4,0(a3)
            if( pxCurrentTCB->ucNotifyState[ uxIndexToWaitOn ] != taskNOTIFICATION_RECEIVED )
    8000201e:	6014                	ld	a3,0(s0)
    80002020:	4709                	li	a4,2
                xReturn = pdFALSE;
    80002022:	4501                	li	a0,0
            if( pxCurrentTCB->ucNotifyState[ uxIndexToWaitOn ] != taskNOTIFICATION_RECEIVED )
    80002024:	08c6c683          	lbu	a3,140(a3)
    80002028:	00e69b63          	bne	a3,a4,8000203e <xTaskGenericNotifyWait+0x62>
                pxCurrentTCB->ulNotifiedValue[ uxIndexToWaitOn ] &= ~ulBitsToClearOnExit;
    8000202c:	6014                	ld	a3,0(s0)
    8000202e:	fff64613          	not	a2,a2
                xReturn = pdTRUE;
    80002032:	4505                	li	a0,1
                pxCurrentTCB->ulNotifiedValue[ uxIndexToWaitOn ] &= ~ulBitsToClearOnExit;
    80002034:	0886a703          	lw	a4,136(a3)
    80002038:	8f71                	and	a4,a4,a2
    8000203a:	08e6a423          	sw	a4,136(a3)
            pxCurrentTCB->ucNotifyState[ uxIndexToWaitOn ] = taskNOT_WAITING_NOTIFICATION;
    8000203e:	6018                	ld	a4,0(s0)
        taskEXIT_CRITICAL();
    80002040:	e09c                	sd	a5,0(s1)
            pxCurrentTCB->ucNotifyState[ uxIndexToWaitOn ] = taskNOT_WAITING_NOTIFICATION;
    80002042:	08070623          	sb	zero,140(a4)
        taskEXIT_CRITICAL();
    80002046:	e399                	bnez	a5,8000204c <xTaskGenericNotifyWait+0x70>
    80002048:	30046073          	csrsi	mstatus,8
    }
    8000204c:	70e2                	ld	ra,56(sp)
    8000204e:	7442                	ld	s0,48(sp)
    80002050:	74a2                	ld	s1,40(sp)
    80002052:	7902                	ld	s2,32(sp)
    80002054:	69e2                	ld	s3,24(sp)
    80002056:	6121                	addi	sp,sp,64
    80002058:	8082                	ret
        uxSchedulerSuspended = ( UBaseType_t ) ( uxSchedulerSuspended + 1U );
    8000205a:	00016917          	auipc	s2,0x16
    8000205e:	a8690913          	addi	s2,s2,-1402 # 80017ae0 <uxSchedulerSuspended>
    80002062:	00093503          	ld	a0,0(s2)
    80002066:	0505                	addi	a0,a0,1
    80002068:	00a93023          	sd	a0,0(s2)
                taskENTER_CRITICAL();
    8000206c:	30047073          	csrci	mstatus,8
                    if( pxCurrentTCB->ucNotifyState[ uxIndexToWaitOn ] != taskNOTIFICATION_RECEIVED )
    80002070:	00043803          	ld	a6,0(s0)
                taskENTER_CRITICAL();
    80002074:	00004497          	auipc	s1,0x4
    80002078:	7ec48493          	addi	s1,s1,2028 # 80006860 <xCriticalNesting>
    8000207c:	6088                	ld	a0,0(s1)
                    if( pxCurrentTCB->ucNotifyState[ uxIndexToWaitOn ] != taskNOTIFICATION_RECEIVED )
    8000207e:	08c84803          	lbu	a6,140(a6)
    80002082:	06f80663          	beq	a6,a5,800020ee <xTaskGenericNotifyWait+0x112>
                        pxCurrentTCB->ulNotifiedValue[ uxIndexToWaitOn ] &= ~ulBitsToClearOnEntry;
    80002086:	00043803          	ld	a6,0(s0)
    8000208a:	fff5c593          	not	a1,a1
    8000208e:	08882783          	lw	a5,136(a6)
    80002092:	8fed                	and	a5,a5,a1
    80002094:	08f82423          	sw	a5,136(a6)
                        pxCurrentTCB->ucNotifyState[ uxIndexToWaitOn ] = taskWAITING_NOTIFICATION;
    80002098:	601c                	ld	a5,0(s0)
    8000209a:	4585                	li	a1,1
    8000209c:	08b78623          	sb	a1,140(a5)
                taskEXIT_CRITICAL();
    800020a0:	e119                	bnez	a0,800020a6 <xTaskGenericNotifyWait+0xca>
    800020a2:	30046073          	csrsi	mstatus,8
                    prvAddCurrentTaskToDelayedList( xTicksToWait, pdTRUE );
    800020a6:	4585                	li	a1,1
    800020a8:	853a                	mv	a0,a4
    800020aa:	e436                	sd	a3,8(sp)
    800020ac:	e032                	sd	a2,0(sp)
    800020ae:	ffffe097          	auipc	ra,0xffffe
    800020b2:	584080e7          	jalr	1412(ra) # 80000632 <prvAddCurrentTaskToDelayedList>
    800020b6:	66a2                	ld	a3,8(sp)
    800020b8:	6602                	ld	a2,0(sp)
    800020ba:	4985                	li	s3,1
        taskENTER_CRITICAL();
    800020bc:	30047073          	csrci	mstatus,8
    800020c0:	609c                	ld	a5,0(s1)
            configASSERT( uxSchedulerSuspended != 0U );
    800020c2:	00093703          	ld	a4,0(s2)
        taskENTER_CRITICAL();
    800020c6:	0785                	addi	a5,a5,1
    800020c8:	e09c                	sd	a5,0(s1)
            configASSERT( uxSchedulerSuspended != 0U );
    800020ca:	e701                	bnez	a4,800020d2 <xTaskGenericNotifyWait+0xf6>
    800020cc:	30047073          	csrci	mstatus,8
    800020d0:	a001                	j	800020d0 <xTaskGenericNotifyWait+0xf4>
    800020d2:	e436                	sd	a3,8(sp)
    800020d4:	e032                	sd	a2,0(sp)
    800020d6:	fffff097          	auipc	ra,0xfffff
    800020da:	8dc080e7          	jalr	-1828(ra) # 800009b2 <xTaskResumeAll.part.0>
            if( ( xShouldBlock == pdTRUE ) && ( xAlreadyYielded == pdFALSE ) )
    800020de:	6602                	ld	a2,0(sp)
    800020e0:	66a2                	ld	a3,8(sp)
    800020e2:	f20986e3          	beqz	s3,8000200e <xTaskGenericNotifyWait+0x32>
    800020e6:	f505                	bnez	a0,8000200e <xTaskGenericNotifyWait+0x32>
                taskYIELD_WITHIN_API();
    800020e8:	00000073          	ecall
    800020ec:	b70d                	j	8000200e <xTaskGenericNotifyWait+0x32>
                taskEXIT_CRITICAL();
    800020ee:	c119                	beqz	a0,800020f4 <xTaskGenericNotifyWait+0x118>
        BaseType_t xReturn, xAlreadyYielded, xShouldBlock = pdFALSE;
    800020f0:	4981                	li	s3,0
    800020f2:	b7e9                	j	800020bc <xTaskGenericNotifyWait+0xe0>
                taskEXIT_CRITICAL();
    800020f4:	30046073          	csrsi	mstatus,8
        BaseType_t xReturn, xAlreadyYielded, xShouldBlock = pdFALSE;
    800020f8:	4981                	li	s3,0
    800020fa:	b7c9                	j	800020bc <xTaskGenericNotifyWait+0xe0>

00000000800020fc <xTaskGenericNotify>:
    {
    800020fc:	87aa                	mv	a5,a0
        configASSERT( uxIndexToNotify < configTASK_NOTIFICATION_ARRAY_ENTRIES );
    800020fe:	c581                	beqz	a1,80002106 <xTaskGenericNotify+0xa>
    80002100:	30047073          	csrci	mstatus,8
    80002104:	a001                	j	80002104 <xTaskGenericNotify+0x8>
        configASSERT( xTaskToNotify );
    80002106:	c52d                	beqz	a0,80002170 <xTaskGenericNotify+0x74>
        taskENTER_CRITICAL();
    80002108:	30047073          	csrci	mstatus,8
    8000210c:	00004897          	auipc	a7,0x4
    80002110:	75488893          	addi	a7,a7,1876 # 80006860 <xCriticalNesting>
    80002114:	0008b803          	ld	a6,0(a7)
    80002118:	00180593          	addi	a1,a6,1
    8000211c:	00b8b023          	sd	a1,0(a7)
            if( pulPreviousNotificationValue != NULL )
    80002120:	c701                	beqz	a4,80002128 <xTaskGenericNotify+0x2c>
                *pulPreviousNotificationValue = pxTCB->ulNotifiedValue[ uxIndexToNotify ];
    80002122:	08852583          	lw	a1,136(a0)
    80002126:	c30c                	sw	a1,0(a4)
            ucOriginalNotifyState = pxTCB->ucNotifyState[ uxIndexToNotify ];
    80002128:	08c7c583          	lbu	a1,140(a5)
            pxTCB->ucNotifyState[ uxIndexToNotify ] = taskNOTIFICATION_RECEIVED;
    8000212c:	4709                	li	a4,2
    8000212e:	08e78623          	sb	a4,140(a5)
            switch( eAction )
    80002132:	4711                	li	a4,4
            ucOriginalNotifyState = pxTCB->ucNotifyState[ uxIndexToNotify ];
    80002134:	0ff5f593          	zext.b	a1,a1
            switch( eAction )
    80002138:	0cd76e63          	bltu	a4,a3,80002214 <xTaskGenericNotify+0x118>
    8000213c:	00004517          	auipc	a0,0x4
    80002140:	d9c50513          	addi	a0,a0,-612 # 80005ed8 <main+0x146>
    80002144:	068a                	slli	a3,a3,0x2
    80002146:	00a68733          	add	a4,a3,a0
    8000214a:	4318                	lw	a4,0(a4)
    8000214c:	972a                	add	a4,a4,a0
    8000214e:	8702                	jr	a4
                    if( ucOriginalNotifyState != taskNOTIFICATION_RECEIVED )
    80002150:	4709                	li	a4,2
    80002152:	0ce58963          	beq	a1,a4,80002224 <xTaskGenericNotify+0x128>
                        pxTCB->ulNotifiedValue[ uxIndexToNotify ] = ulValue;
    80002156:	08c7a423          	sw	a2,136(a5)
            if( ucOriginalNotifyState == taskWAITING_NOTIFICATION )
    8000215a:	4705                	li	a4,1
    8000215c:	4505                	li	a0,1
    8000215e:	00e58c63          	beq	a1,a4,80002176 <xTaskGenericNotify+0x7a>
        taskEXIT_CRITICAL();
    80002162:	0108b023          	sd	a6,0(a7)
    80002166:	00081463          	bnez	a6,8000216e <xTaskGenericNotify+0x72>
    8000216a:	30046073          	csrsi	mstatus,8
    }
    8000216e:	8082                	ret
        configASSERT( xTaskToNotify );
    80002170:	30047073          	csrci	mstatus,8
    80002174:	a001                	j	80002174 <xTaskGenericNotify+0x78>
                listREMOVE_ITEM( &( pxTCB->xStateListItem ) );
    80002176:	6f94                	ld	a3,24(a5)
    80002178:	6b98                	ld	a4,16(a5)
    8000217a:	7788                	ld	a0,40(a5)
    8000217c:	00878313          	addi	t1,a5,8
    80002180:	eb14                	sd	a3,16(a4)
    80002182:	6f94                	ld	a3,24(a5)
    80002184:	6510                	ld	a2,8(a0)
    80002186:	e698                	sd	a4,8(a3)
    80002188:	0a660e63          	beq	a2,t1,80002244 <xTaskGenericNotify+0x148>
                prvAddTaskToReadyList( pxTCB );
    8000218c:	6fac                	ld	a1,88(a5)
    8000218e:	00004697          	auipc	a3,0x4
    80002192:	6e268693          	addi	a3,a3,1762 # 80006870 <xSuspendedTaskList>
                listREMOVE_ITEM( &( pxTCB->xStateListItem ) );
    80002196:	00053e03          	ld	t3,0(a0)
                prvAddTaskToReadyList( pxTCB );
    8000219a:	00259713          	slli	a4,a1,0x2
    8000219e:	972e                	add	a4,a4,a1
    800021a0:	070e                	slli	a4,a4,0x3
    800021a2:	96ba                	add	a3,a3,a4
    800021a4:	6eb0                	ld	a2,88(a3)
                listREMOVE_ITEM( &( pxTCB->xStateListItem ) );
    800021a6:	1e7d                	addi	t3,t3,-1
    800021a8:	01c53023          	sd	t3,0(a0)
                prvAddTaskToReadyList( pxTCB );
    800021ac:	6a08                	ld	a0,16(a2)
    800021ae:	00016e17          	auipc	t3,0x16
    800021b2:	972e0e13          	addi	t3,t3,-1678 # 80017b20 <uxTopReadyPriority>
    800021b6:	eb90                	sd	a2,16(a5)
    800021b8:	ef88                	sd	a0,24(a5)
    800021ba:	01063e83          	ld	t4,16(a2)
    800021be:	6aa8                	ld	a0,80(a3)
    800021c0:	000e3f03          	ld	t5,0(t3)
    800021c4:	006eb423          	sd	t1,8(t4)
    800021c8:	00663823          	sd	t1,16(a2)
    800021cc:	4605                	li	a2,1
    800021ce:	00004317          	auipc	t1,0x4
    800021d2:	6f230313          	addi	t1,t1,1778 # 800068c0 <pxReadyTasksLists>
                configASSERT( listLIST_ITEM_CONTAINER( &( pxTCB->xEventListItem ) ) == NULL );
    800021d6:	0507be83          	ld	t4,80(a5)
                prvAddTaskToReadyList( pxTCB );
    800021da:	933a                	add	t1,t1,a4
    800021dc:	00b61633          	sll	a2,a2,a1
    800021e0:	0267b423          	sd	t1,40(a5)
    800021e4:	01e66733          	or	a4,a2,t5
    800021e8:	00150793          	addi	a5,a0,1
    800021ec:	00ee3023          	sd	a4,0(t3)
    800021f0:	eabc                	sd	a5,80(a3)
                configASSERT( listLIST_ITEM_CONTAINER( &( pxTCB->xEventListItem ) ) == NULL );
    800021f2:	020e8b63          	beqz	t4,80002228 <xTaskGenericNotify+0x12c>
    800021f6:	30047073          	csrci	mstatus,8
    800021fa:	a001                	j	800021fa <xTaskGenericNotify+0xfe>
                    ( pxTCB->ulNotifiedValue[ uxIndexToNotify ] )++;
    800021fc:	0887a703          	lw	a4,136(a5)
    80002200:	2705                	addiw	a4,a4,1
    80002202:	08e7a423          	sw	a4,136(a5)
                    break;
    80002206:	bf91                	j	8000215a <xTaskGenericNotify+0x5e>
                    pxTCB->ulNotifiedValue[ uxIndexToNotify ] |= ulValue;
    80002208:	0887a703          	lw	a4,136(a5)
    8000220c:	8f51                	or	a4,a4,a2
    8000220e:	08e7a423          	sw	a4,136(a5)
                    break;
    80002212:	b7a1                	j	8000215a <xTaskGenericNotify+0x5e>
                    configASSERT( xTickCount == ( TickType_t ) 0 );
    80002214:	00016717          	auipc	a4,0x16
    80002218:	91473703          	ld	a4,-1772(a4) # 80017b28 <xTickCount>
    8000221c:	df1d                	beqz	a4,8000215a <xTaskGenericNotify+0x5e>
    8000221e:	30047073          	csrci	mstatus,8
    80002222:	a001                	j	80002222 <xTaskGenericNotify+0x126>
                        xReturn = pdFAIL;
    80002224:	4501                	li	a0,0
    80002226:	bf35                	j	80002162 <xTaskGenericNotify+0x66>
                taskYIELD_ANY_CORE_IF_USING_PREEMPTION( pxTCB );
    80002228:	00016797          	auipc	a5,0x16
    8000222c:	9287b783          	ld	a5,-1752(a5) # 80017b50 <pxCurrentTCB>
    80002230:	6fbc                	ld	a5,88(a5)
    80002232:	4505                	li	a0,1
    80002234:	f2b7f7e3          	bgeu	a5,a1,80002162 <xTaskGenericNotify+0x66>
    80002238:	00000073          	ecall
        taskEXIT_CRITICAL();
    8000223c:	0008b803          	ld	a6,0(a7)
    80002240:	187d                	addi	a6,a6,-1
    80002242:	b705                	j	80002162 <xTaskGenericNotify+0x66>
                listREMOVE_ITEM( &( pxTCB->xStateListItem ) );
    80002244:	e514                	sd	a3,8(a0)
    80002246:	b799                	j	8000218c <xTaskGenericNotify+0x90>

0000000080002248 <xTaskGenericNotifyFromISR>:
        configASSERT( xTaskToNotify );
    80002248:	c539                	beqz	a0,80002296 <xTaskGenericNotifyFromISR+0x4e>
        configASSERT( uxIndexToNotify < configTASK_NOTIFICATION_ARRAY_ENTRIES );
    8000224a:	e98d                	bnez	a1,8000227c <xTaskGenericNotifyFromISR+0x34>
            if( pulPreviousNotificationValue != NULL )
    8000224c:	c701                	beqz	a4,80002254 <xTaskGenericNotifyFromISR+0xc>
                *pulPreviousNotificationValue = pxTCB->ulNotifiedValue[ uxIndexToNotify ];
    8000224e:	08852583          	lw	a1,136(a0)
    80002252:	c30c                	sw	a1,0(a4)
            ucOriginalNotifyState = pxTCB->ucNotifyState[ uxIndexToNotify ];
    80002254:	08c54583          	lbu	a1,140(a0)
            pxTCB->ucNotifyState[ uxIndexToNotify ] = taskNOTIFICATION_RECEIVED;
    80002258:	4709                	li	a4,2
    8000225a:	08e50623          	sb	a4,140(a0)
            switch( eAction )
    8000225e:	4711                	li	a4,4
            ucOriginalNotifyState = pxTCB->ucNotifyState[ uxIndexToNotify ];
    80002260:	0ff5f593          	zext.b	a1,a1
            switch( eAction )
    80002264:	04d76d63          	bltu	a4,a3,800022be <xTaskGenericNotifyFromISR+0x76>
    80002268:	00004817          	auipc	a6,0x4
    8000226c:	c8480813          	addi	a6,a6,-892 # 80005eec <main+0x15a>
    80002270:	068a                	slli	a3,a3,0x2
    80002272:	01068733          	add	a4,a3,a6
    80002276:	4318                	lw	a4,0(a4)
    80002278:	9742                	add	a4,a4,a6
    8000227a:	8702                	jr	a4
        configASSERT( uxIndexToNotify < configTASK_NOTIFICATION_ARRAY_ENTRIES );
    8000227c:	30047073          	csrci	mstatus,8
    80002280:	a001                	j	80002280 <xTaskGenericNotifyFromISR+0x38>
                    if( ucOriginalNotifyState != taskNOTIFICATION_RECEIVED )
    80002282:	4709                	li	a4,2
    80002284:	04e58563          	beq	a1,a4,800022ce <xTaskGenericNotifyFromISR+0x86>
                        pxTCB->ulNotifiedValue[ uxIndexToNotify ] = ulValue;
    80002288:	08c52423          	sw	a2,136(a0)
            if( ucOriginalNotifyState == taskWAITING_NOTIFICATION )
    8000228c:	4705                	li	a4,1
    8000228e:	00e58763          	beq	a1,a4,8000229c <xTaskGenericNotifyFromISR+0x54>
    80002292:	4505                	li	a0,1
    80002294:	8082                	ret
        configASSERT( xTaskToNotify );
    80002296:	30047073          	csrci	mstatus,8
    8000229a:	a001                	j	8000229a <xTaskGenericNotifyFromISR+0x52>
                configASSERT( listLIST_ITEM_CONTAINER( &( pxTCB->xEventListItem ) ) == NULL );
    8000229c:	6938                	ld	a4,80(a0)
    8000229e:	cb15                	beqz	a4,800022d2 <xTaskGenericNotifyFromISR+0x8a>
    800022a0:	30047073          	csrci	mstatus,8
    800022a4:	a001                	j	800022a4 <xTaskGenericNotifyFromISR+0x5c>
                    ( pxTCB->ulNotifiedValue[ uxIndexToNotify ] )++;
    800022a6:	08852703          	lw	a4,136(a0)
    800022aa:	2705                	addiw	a4,a4,1
    800022ac:	08e52423          	sw	a4,136(a0)
                    break;
    800022b0:	bff1                	j	8000228c <xTaskGenericNotifyFromISR+0x44>
                    pxTCB->ulNotifiedValue[ uxIndexToNotify ] |= ulValue;
    800022b2:	08852703          	lw	a4,136(a0)
    800022b6:	8f51                	or	a4,a4,a2
    800022b8:	08e52423          	sw	a4,136(a0)
                    break;
    800022bc:	bfc1                	j	8000228c <xTaskGenericNotifyFromISR+0x44>
                    configASSERT( xTickCount == ( TickType_t ) 0 );
    800022be:	00016717          	auipc	a4,0x16
    800022c2:	86a73703          	ld	a4,-1942(a4) # 80017b28 <xTickCount>
    800022c6:	d379                	beqz	a4,8000228c <xTaskGenericNotifyFromISR+0x44>
    800022c8:	30047073          	csrci	mstatus,8
    800022cc:	a001                	j	800022cc <xTaskGenericNotifyFromISR+0x84>
                        xReturn = pdFAIL;
    800022ce:	4501                	li	a0,0
    }
    800022d0:	8082                	ret
                if( uxSchedulerSuspended == ( UBaseType_t ) 0U )
    800022d2:	00016717          	auipc	a4,0x16
    800022d6:	80e73703          	ld	a4,-2034(a4) # 80017ae0 <uxSchedulerSuspended>
                    prvAddTaskToReadyList( pxTCB );
    800022da:	6d2c                	ld	a1,88(a0)
                if( uxSchedulerSuspended == ( UBaseType_t ) 0U )
    800022dc:	e34d                	bnez	a4,8000237e <xTaskGenericNotifyFromISR+0x136>
                    listREMOVE_ITEM( &( pxTCB->xStateListItem ) );
    800022de:	6d18                	ld	a4,24(a0)
    800022e0:	6914                	ld	a3,16(a0)
    800022e2:	02853803          	ld	a6,40(a0)
    800022e6:	00850893          	addi	a7,a0,8
    800022ea:	ea98                	sd	a4,16(a3)
    800022ec:	6d18                	ld	a4,24(a0)
    800022ee:	00883603          	ld	a2,8(a6)
    800022f2:	e714                	sd	a3,8(a4)
    800022f4:	0d160363          	beq	a2,a7,800023ba <xTaskGenericNotifyFromISR+0x172>
                    prvAddTaskToReadyList( pxTCB );
    800022f8:	00259713          	slli	a4,a1,0x2
    800022fc:	972e                	add	a4,a4,a1
    800022fe:	070e                	slli	a4,a4,0x3
    80002300:	00004697          	auipc	a3,0x4
    80002304:	57068693          	addi	a3,a3,1392 # 80006870 <xSuspendedTaskList>
    80002308:	96ba                	add	a3,a3,a4
    8000230a:	6eb0                	ld	a2,88(a3)
                    listREMOVE_ITEM( &( pxTCB->xStateListItem ) );
    8000230c:	00083303          	ld	t1,0(a6)
                    prvAddTaskToReadyList( pxTCB );
    80002310:	00016e17          	auipc	t3,0x16
    80002314:	810e0e13          	addi	t3,t3,-2032 # 80017b20 <uxTopReadyPriority>
    80002318:	01063e83          	ld	t4,16(a2)
                    listREMOVE_ITEM( &( pxTCB->xStateListItem ) );
    8000231c:	137d                	addi	t1,t1,-1
    8000231e:	00683023          	sd	t1,0(a6)
                    prvAddTaskToReadyList( pxTCB );
    80002322:	01d53c23          	sd	t4,24(a0)
    80002326:	01063e83          	ld	t4,16(a2)
    8000232a:	e910                	sd	a2,16(a0)
    8000232c:	0506b803          	ld	a6,80(a3)
    80002330:	000e3303          	ld	t1,0(t3)
    80002334:	011eb423          	sd	a7,8(t4)
    80002338:	01163823          	sd	a7,16(a2)
    8000233c:	4605                	li	a2,1
    8000233e:	00004897          	auipc	a7,0x4
    80002342:	58288893          	addi	a7,a7,1410 # 800068c0 <pxReadyTasksLists>
    80002346:	00b61633          	sll	a2,a2,a1
    8000234a:	98ba                	add	a7,a7,a4
    8000234c:	03153423          	sd	a7,40(a0)
    80002350:	00666733          	or	a4,a2,t1
    80002354:	00180613          	addi	a2,a6,1
    80002358:	00ee3023          	sd	a4,0(t3)
    8000235c:	eab0                	sd	a2,80(a3)
                    if( pxTCB->uxPriority > pxCurrentTCB->uxPriority )
    8000235e:	00015717          	auipc	a4,0x15
    80002362:	7f273703          	ld	a4,2034(a4) # 80017b50 <pxCurrentTCB>
    80002366:	6f38                	ld	a4,88(a4)
    80002368:	f2b775e3          	bgeu	a4,a1,80002292 <xTaskGenericNotifyFromISR+0x4a>
                        if( pxHigherPriorityTaskWoken != NULL )
    8000236c:	c399                	beqz	a5,80002372 <xTaskGenericNotifyFromISR+0x12a>
                            *pxHigherPriorityTaskWoken = pdTRUE;
    8000236e:	4705                	li	a4,1
    80002370:	e398                	sd	a4,0(a5)
                        xYieldPendings[ 0 ] = pdTRUE;
    80002372:	4785                	li	a5,1
    80002374:	00015717          	auipc	a4,0x15
    80002378:	78f73a23          	sd	a5,1940(a4) # 80017b08 <xYieldPendings>
    8000237c:	bf19                	j	80002292 <xTaskGenericNotifyFromISR+0x4a>
                    listINSERT_END( &( xPendingReadyList ), &( pxTCB->xEventListItem ) );
    8000237e:	00004697          	auipc	a3,0x4
    80002382:	4f268693          	addi	a3,a3,1266 # 80006870 <xSuspendedTaskList>
    80002386:	1206b703          	ld	a4,288(a3)
    8000238a:	1186b603          	ld	a2,280(a3)
    8000238e:	03050813          	addi	a6,a0,48
    80002392:	01073883          	ld	a7,16(a4)
    80002396:	fd18                	sd	a4,56(a0)
    80002398:	0605                	addi	a2,a2,1
    8000239a:	05153023          	sd	a7,64(a0)
    8000239e:	01073883          	ld	a7,16(a4)
    800023a2:	10c6bc23          	sd	a2,280(a3)
    800023a6:	0108b423          	sd	a6,8(a7)
    800023aa:	01073823          	sd	a6,16(a4)
    800023ae:	00004717          	auipc	a4,0x4
    800023b2:	5da70713          	addi	a4,a4,1498 # 80006988 <xPendingReadyList>
    800023b6:	e938                	sd	a4,80(a0)
    800023b8:	b75d                	j	8000235e <xTaskGenericNotifyFromISR+0x116>
                    listREMOVE_ITEM( &( pxTCB->xStateListItem ) );
    800023ba:	00e83423          	sd	a4,8(a6)
    800023be:	bf2d                	j	800022f8 <xTaskGenericNotifyFromISR+0xb0>

00000000800023c0 <vTaskGenericNotifyGiveFromISR>:
        configASSERT( xTaskToNotify );
    800023c0:	c11d                	beqz	a0,800023e6 <vTaskGenericNotifyGiveFromISR+0x26>
        configASSERT( uxIndexToNotify < configTASK_NOTIFICATION_ARRAY_ENTRIES );
    800023c2:	c581                	beqz	a1,800023ca <vTaskGenericNotifyGiveFromISR+0xa>
    800023c4:	30047073          	csrci	mstatus,8
    800023c8:	a001                	j	800023c8 <vTaskGenericNotifyGiveFromISR+0x8>
            pxTCB->ucNotifyState[ uxIndexToNotify ] = taskNOTIFICATION_RECEIVED;
    800023ca:	4789                	li	a5,2
            ucOriginalNotifyState = pxTCB->ucNotifyState[ uxIndexToNotify ];
    800023cc:	08c54683          	lbu	a3,140(a0)
            pxTCB->ucNotifyState[ uxIndexToNotify ] = taskNOTIFICATION_RECEIVED;
    800023d0:	08f50623          	sb	a5,140(a0)
            ( pxTCB->ulNotifiedValue[ uxIndexToNotify ] )++;
    800023d4:	08852783          	lw	a5,136(a0)
            if( ucOriginalNotifyState == taskWAITING_NOTIFICATION )
    800023d8:	4705                	li	a4,1
            ( pxTCB->ulNotifiedValue[ uxIndexToNotify ] )++;
    800023da:	2785                	addiw	a5,a5,1
    800023dc:	08f52423          	sw	a5,136(a0)
            if( ucOriginalNotifyState == taskWAITING_NOTIFICATION )
    800023e0:	00e68663          	beq	a3,a4,800023ec <vTaskGenericNotifyGiveFromISR+0x2c>
    }
    800023e4:	8082                	ret
        configASSERT( xTaskToNotify );
    800023e6:	30047073          	csrci	mstatus,8
    800023ea:	a001                	j	800023ea <vTaskGenericNotifyGiveFromISR+0x2a>
                configASSERT( listLIST_ITEM_CONTAINER( &( pxTCB->xEventListItem ) ) == NULL );
    800023ec:	693c                	ld	a5,80(a0)
    800023ee:	c781                	beqz	a5,800023f6 <vTaskGenericNotifyGiveFromISR+0x36>
    800023f0:	30047073          	csrci	mstatus,8
    800023f4:	a001                	j	800023f4 <vTaskGenericNotifyGiveFromISR+0x34>
                if( uxSchedulerSuspended == ( UBaseType_t ) 0U )
    800023f6:	00015797          	auipc	a5,0x15
    800023fa:	6ea7b783          	ld	a5,1770(a5) # 80017ae0 <uxSchedulerSuspended>
                    prvAddTaskToReadyList( pxTCB );
    800023fe:	6d2c                	ld	a1,88(a0)
                if( uxSchedulerSuspended == ( UBaseType_t ) 0U )
    80002400:	e3cd                	bnez	a5,800024a2 <vTaskGenericNotifyGiveFromISR+0xe2>
                    listREMOVE_ITEM( &( pxTCB->xStateListItem ) );
    80002402:	6d1c                	ld	a5,24(a0)
    80002404:	6918                	ld	a4,16(a0)
    80002406:	02853803          	ld	a6,40(a0)
    8000240a:	00850893          	addi	a7,a0,8
    8000240e:	eb1c                	sd	a5,16(a4)
    80002410:	6d1c                	ld	a5,24(a0)
    80002412:	00883683          	ld	a3,8(a6)
    80002416:	e798                	sd	a4,8(a5)
    80002418:	0d168363          	beq	a3,a7,800024de <vTaskGenericNotifyGiveFromISR+0x11e>
                    prvAddTaskToReadyList( pxTCB );
    8000241c:	00259793          	slli	a5,a1,0x2
    80002420:	97ae                	add	a5,a5,a1
    80002422:	078e                	slli	a5,a5,0x3
    80002424:	00004717          	auipc	a4,0x4
    80002428:	44c70713          	addi	a4,a4,1100 # 80006870 <xSuspendedTaskList>
    8000242c:	973e                	add	a4,a4,a5
    8000242e:	6f34                	ld	a3,88(a4)
                    listREMOVE_ITEM( &( pxTCB->xStateListItem ) );
    80002430:	00083303          	ld	t1,0(a6)
                    prvAddTaskToReadyList( pxTCB );
    80002434:	00015e17          	auipc	t3,0x15
    80002438:	6ece0e13          	addi	t3,t3,1772 # 80017b20 <uxTopReadyPriority>
    8000243c:	0106be83          	ld	t4,16(a3)
                    listREMOVE_ITEM( &( pxTCB->xStateListItem ) );
    80002440:	137d                	addi	t1,t1,-1
    80002442:	00683023          	sd	t1,0(a6)
                    prvAddTaskToReadyList( pxTCB );
    80002446:	01d53c23          	sd	t4,24(a0)
    8000244a:	0106be83          	ld	t4,16(a3)
    8000244e:	e914                	sd	a3,16(a0)
    80002450:	05073803          	ld	a6,80(a4)
    80002454:	000e3303          	ld	t1,0(t3)
    80002458:	011eb423          	sd	a7,8(t4)
    8000245c:	0116b823          	sd	a7,16(a3)
    80002460:	4685                	li	a3,1
    80002462:	00004897          	auipc	a7,0x4
    80002466:	45e88893          	addi	a7,a7,1118 # 800068c0 <pxReadyTasksLists>
    8000246a:	00b696b3          	sll	a3,a3,a1
    8000246e:	98be                	add	a7,a7,a5
    80002470:	03153423          	sd	a7,40(a0)
    80002474:	0066e7b3          	or	a5,a3,t1
    80002478:	00180693          	addi	a3,a6,1
    8000247c:	00fe3023          	sd	a5,0(t3)
    80002480:	eb34                	sd	a3,80(a4)
                    if( pxTCB->uxPriority > pxCurrentTCB->uxPriority )
    80002482:	00015797          	auipc	a5,0x15
    80002486:	6ce7b783          	ld	a5,1742(a5) # 80017b50 <pxCurrentTCB>
    8000248a:	6fbc                	ld	a5,88(a5)
    8000248c:	f4b7fce3          	bgeu	a5,a1,800023e4 <vTaskGenericNotifyGiveFromISR+0x24>
                        if( pxHigherPriorityTaskWoken != NULL )
    80002490:	c219                	beqz	a2,80002496 <vTaskGenericNotifyGiveFromISR+0xd6>
                            *pxHigherPriorityTaskWoken = pdTRUE;
    80002492:	4785                	li	a5,1
    80002494:	e21c                	sd	a5,0(a2)
                        xYieldPendings[ 0 ] = pdTRUE;
    80002496:	4785                	li	a5,1
    80002498:	00015717          	auipc	a4,0x15
    8000249c:	66f73823          	sd	a5,1648(a4) # 80017b08 <xYieldPendings>
    }
    800024a0:	8082                	ret
                    listINSERT_END( &( xPendingReadyList ), &( pxTCB->xEventListItem ) );
    800024a2:	00004717          	auipc	a4,0x4
    800024a6:	3ce70713          	addi	a4,a4,974 # 80006870 <xSuspendedTaskList>
    800024aa:	12073783          	ld	a5,288(a4)
    800024ae:	11873683          	ld	a3,280(a4)
    800024b2:	03050813          	addi	a6,a0,48
    800024b6:	0107b883          	ld	a7,16(a5)
    800024ba:	fd1c                	sd	a5,56(a0)
    800024bc:	0685                	addi	a3,a3,1
    800024be:	05153023          	sd	a7,64(a0)
    800024c2:	0107b883          	ld	a7,16(a5)
    800024c6:	10d73c23          	sd	a3,280(a4)
    800024ca:	0108b423          	sd	a6,8(a7)
    800024ce:	0107b823          	sd	a6,16(a5)
    800024d2:	00004797          	auipc	a5,0x4
    800024d6:	4b678793          	addi	a5,a5,1206 # 80006988 <xPendingReadyList>
    800024da:	e93c                	sd	a5,80(a0)
    800024dc:	b75d                	j	80002482 <vTaskGenericNotifyGiveFromISR+0xc2>
                    listREMOVE_ITEM( &( pxTCB->xStateListItem ) );
    800024de:	00f83423          	sd	a5,8(a6)
    800024e2:	bf2d                	j	8000241c <vTaskGenericNotifyGiveFromISR+0x5c>

00000000800024e4 <xTaskGenericNotifyStateClear>:
    {
    800024e4:	87aa                	mv	a5,a0
        configASSERT( uxIndexToClear < configTASK_NOTIFICATION_ARRAY_ENTRIES );
    800024e6:	c581                	beqz	a1,800024ee <xTaskGenericNotifyStateClear+0xa>
    800024e8:	30047073          	csrci	mstatus,8
    800024ec:	a001                	j	800024ec <xTaskGenericNotifyStateClear+0x8>
        pxTCB = prvGetTCBFromHandle( xTask );
    800024ee:	c10d                	beqz	a0,80002510 <xTaskGenericNotifyStateClear+0x2c>
        taskENTER_CRITICAL();
    800024f0:	30047073          	csrci	mstatus,8
            if( pxTCB->ucNotifyState[ uxIndexToClear ] == taskNOTIFICATION_RECEIVED )
    800024f4:	08c7c603          	lbu	a2,140(a5)
    800024f8:	4689                	li	a3,2
        taskENTER_CRITICAL();
    800024fa:	00004717          	auipc	a4,0x4
    800024fe:	36673703          	ld	a4,870(a4) # 80006860 <xCriticalNesting>
                xReturn = pdFAIL;
    80002502:	4501                	li	a0,0
            if( pxTCB->ucNotifyState[ uxIndexToClear ] == taskNOTIFICATION_RECEIVED )
    80002504:	00d60e63          	beq	a2,a3,80002520 <xTaskGenericNotifyStateClear+0x3c>
        taskEXIT_CRITICAL();
    80002508:	e319                	bnez	a4,8000250e <xTaskGenericNotifyStateClear+0x2a>
    8000250a:	30046073          	csrsi	mstatus,8
    }
    8000250e:	8082                	ret
        pxTCB = prvGetTCBFromHandle( xTask );
    80002510:	00015797          	auipc	a5,0x15
    80002514:	6407b783          	ld	a5,1600(a5) # 80017b50 <pxCurrentTCB>
        configASSERT( pxTCB != NULL );
    80002518:	ffe1                	bnez	a5,800024f0 <xTaskGenericNotifyStateClear+0xc>
    8000251a:	30047073          	csrci	mstatus,8
    8000251e:	a001                	j	8000251e <xTaskGenericNotifyStateClear+0x3a>
                pxTCB->ucNotifyState[ uxIndexToClear ] = taskNOT_WAITING_NOTIFICATION;
    80002520:	08078623          	sb	zero,140(a5)
                xReturn = pdPASS;
    80002524:	4505                	li	a0,1
        taskEXIT_CRITICAL();
    80002526:	f765                	bnez	a4,8000250e <xTaskGenericNotifyStateClear+0x2a>
    80002528:	b7cd                	j	8000250a <xTaskGenericNotifyStateClear+0x26>

000000008000252a <ulTaskGenericNotifyValueClear>:
        configASSERT( uxIndexToClear < configTASK_NOTIFICATION_ARRAY_ENTRIES );
    8000252a:	c581                	beqz	a1,80002532 <ulTaskGenericNotifyValueClear+0x8>
    8000252c:	30047073          	csrci	mstatus,8
    80002530:	a001                	j	80002530 <ulTaskGenericNotifyValueClear+0x6>
        pxTCB = prvGetTCBFromHandle( xTask );
    80002532:	c515                	beqz	a0,8000255e <ulTaskGenericNotifyValueClear+0x34>
        taskENTER_CRITICAL();
    80002534:	30047073          	csrci	mstatus,8
            ulReturn = pxTCB->ulNotifiedValue[ uxIndexToClear ];
    80002538:	08852703          	lw	a4,136(a0)
            pxTCB->ulNotifiedValue[ uxIndexToClear ] &= ~ulBitsToClear;
    8000253c:	08852783          	lw	a5,136(a0)
    80002540:	fff64613          	not	a2,a2
        taskENTER_CRITICAL();
    80002544:	00004697          	auipc	a3,0x4
    80002548:	31c6b683          	ld	a3,796(a3) # 80006860 <xCriticalNesting>
            pxTCB->ulNotifiedValue[ uxIndexToClear ] &= ~ulBitsToClear;
    8000254c:	8ff1                	and	a5,a5,a2
    8000254e:	08f52423          	sw	a5,136(a0)
            ulReturn = pxTCB->ulNotifiedValue[ uxIndexToClear ];
    80002552:	0007051b          	sext.w	a0,a4
        taskEXIT_CRITICAL();
    80002556:	e299                	bnez	a3,8000255c <ulTaskGenericNotifyValueClear+0x32>
    80002558:	30046073          	csrsi	mstatus,8
    }
    8000255c:	8082                	ret
        pxTCB = prvGetTCBFromHandle( xTask );
    8000255e:	00015517          	auipc	a0,0x15
    80002562:	5f253503          	ld	a0,1522(a0) # 80017b50 <pxCurrentTCB>
        configASSERT( pxTCB != NULL );
    80002566:	f579                	bnez	a0,80002534 <ulTaskGenericNotifyValueClear+0xa>
    80002568:	30047073          	csrci	mstatus,8
    8000256c:	a001                	j	8000256c <ulTaskGenericNotifyValueClear+0x42>

000000008000256e <vTaskResetState>:
    BaseType_t xCoreID;

    /* Task control block. */
    #if ( configNUMBER_OF_CORES == 1 )
    {
        pxCurrentTCB = NULL;
    8000256e:	00015797          	auipc	a5,0x15
    80002572:	5e07b123          	sd	zero,1506(a5) # 80017b50 <pxCurrentTCB>
    }
    #endif /* #if ( configNUMBER_OF_CORES == 1 ) */

    #if ( INCLUDE_vTaskDelete == 1 )
    {
        uxDeletedTasksWaitingCleanUp = ( UBaseType_t ) 0U;
    80002576:	00015797          	auipc	a5,0x15
    8000257a:	5c07b123          	sd	zero,1474(a5) # 80017b38 <uxDeletedTasksWaitingCleanUp>
        FreeRTOS_errno = 0;
    }
    #endif /* #if ( configUSE_POSIX_ERRNO == 1 ) */

    /* Other file private variables. */
    uxCurrentNumberOfTasks = ( UBaseType_t ) 0U;
    8000257e:	00015797          	auipc	a5,0x15
    80002582:	5a07b923          	sd	zero,1458(a5) # 80017b30 <uxCurrentNumberOfTasks>
    xTickCount = ( TickType_t ) configINITIAL_TICK_COUNT;
    80002586:	00015797          	auipc	a5,0x15
    8000258a:	5a07b123          	sd	zero,1442(a5) # 80017b28 <xTickCount>
    uxTopReadyPriority = tskIDLE_PRIORITY;
    8000258e:	00015797          	auipc	a5,0x15
    80002592:	5807b923          	sd	zero,1426(a5) # 80017b20 <uxTopReadyPriority>
    xSchedulerRunning = pdFALSE;
    80002596:	00015797          	auipc	a5,0x15
    8000259a:	5807b123          	sd	zero,1410(a5) # 80017b18 <xSchedulerRunning>
    xPendedTicks = ( TickType_t ) 0U;
    8000259e:	00015797          	auipc	a5,0x15
    800025a2:	5607b923          	sd	zero,1394(a5) # 80017b10 <xPendedTicks>

    for( xCoreID = 0; xCoreID < configNUMBER_OF_CORES; xCoreID++ )
    {
        xYieldPendings[ xCoreID ] = pdFALSE;
    800025a6:	00015797          	auipc	a5,0x15
    800025aa:	5607b123          	sd	zero,1378(a5) # 80017b08 <xYieldPendings>
    }

    xNumOfOverflows = ( BaseType_t ) 0;
    800025ae:	00015797          	auipc	a5,0x15
    800025b2:	5407b923          	sd	zero,1362(a5) # 80017b00 <xNumOfOverflows>
    uxTaskNumber = ( UBaseType_t ) 0U;
    xNextTaskUnblockTime = ( TickType_t ) 0U;
    800025b6:	00015797          	auipc	a5,0x15
    800025ba:	5207bd23          	sd	zero,1338(a5) # 80017af0 <xNextTaskUnblockTime>
    uxTaskNumber = ( UBaseType_t ) 0U;
    800025be:	00015797          	auipc	a5,0x15
    800025c2:	5207bd23          	sd	zero,1338(a5) # 80017af8 <uxTaskNumber>

    uxSchedulerSuspended = ( UBaseType_t ) 0U;
    800025c6:	00015797          	auipc	a5,0x15
    800025ca:	5007bd23          	sd	zero,1306(a5) # 80017ae0 <uxSchedulerSuspended>
            ulTaskSwitchedInTime[ xCoreID ] = 0U;
            ulTotalRunTime[ xCoreID ] = 0U;
        }
    }
    #endif /* #if ( configGENERATE_RUN_TIME_STATS == 1 ) */
}
    800025ce:	8082                	ret

00000000800025d0 <vListInitialise>:
    traceENTER_vListInitialise( pxList );

    /* The list structure contains a list item which is used to mark the
     * end of the list.  To initialise the list the list end is inserted
     * as the only list entry. */
    pxList->pxIndex = ( ListItem_t * ) &( pxList->xListEnd );
    800025d0:	01050793          	addi	a5,a0,16

    listSET_FIRST_LIST_ITEM_INTEGRITY_CHECK_VALUE( &( pxList->xListEnd ) );

    /* The list end value is the highest possible value in the list to
     * ensure it remains at the end of the list. */
    pxList->xListEnd.xItemValue = portMAX_DELAY;
    800025d4:	577d                	li	a4,-1
    pxList->pxIndex = ( ListItem_t * ) &( pxList->xListEnd );
    800025d6:	e51c                	sd	a5,8(a0)
    pxList->xListEnd.xItemValue = portMAX_DELAY;
    800025d8:	e918                	sd	a4,16(a0)

    /* The list end next and previous pointers point to itself so we know
     * when the list is empty. */
    pxList->xListEnd.pxNext = ( ListItem_t * ) &( pxList->xListEnd );
    800025da:	ed1c                	sd	a5,24(a0)
    pxList->xListEnd.pxPrevious = ( ListItem_t * ) &( pxList->xListEnd );
    800025dc:	f11c                	sd	a5,32(a0)
        pxList->xListEnd.pxContainer = NULL;
        listSET_SECOND_LIST_ITEM_INTEGRITY_CHECK_VALUE( &( pxList->xListEnd ) );
    }
    #endif

    pxList->uxNumberOfItems = ( UBaseType_t ) 0U;
    800025de:	00053023          	sd	zero,0(a0)
     * configUSE_LIST_DATA_INTEGRITY_CHECK_BYTES is set to 1. */
    listSET_LIST_INTEGRITY_CHECK_1_VALUE( pxList );
    listSET_LIST_INTEGRITY_CHECK_2_VALUE( pxList );

    traceRETURN_vListInitialise();
}
    800025e2:	8082                	ret

00000000800025e4 <vListInitialiseItem>:
void vListInitialiseItem( ListItem_t * const pxItem )
{
    traceENTER_vListInitialiseItem( pxItem );

    /* Make sure the list item is not recorded as being on a list. */
    pxItem->pxContainer = NULL;
    800025e4:	02053023          	sd	zero,32(a0)
     * configUSE_LIST_DATA_INTEGRITY_CHECK_BYTES is set to 1. */
    listSET_FIRST_LIST_ITEM_INTEGRITY_CHECK_VALUE( pxItem );
    listSET_SECOND_LIST_ITEM_INTEGRITY_CHECK_VALUE( pxItem );

    traceRETURN_vListInitialiseItem();
}
    800025e8:	8082                	ret

00000000800025ea <vListInsertEnd>:
/*-----------------------------------------------------------*/

void vListInsertEnd( List_t * const pxList,
                     ListItem_t * const pxNewListItem )
{
    ListItem_t * const pxIndex = pxList->pxIndex;
    800025ea:	651c                	ld	a5,8(a0)
    pxIndex->pxPrevious = pxNewListItem;

    /* Remember which list the item is in. */
    pxNewListItem->pxContainer = pxList;

    ( pxList->uxNumberOfItems ) = ( UBaseType_t ) ( pxList->uxNumberOfItems + 1U );
    800025ec:	6118                	ld	a4,0(a0)
    pxNewListItem->pxPrevious = pxIndex->pxPrevious;
    800025ee:	6b94                	ld	a3,16(a5)
    pxNewListItem->pxNext = pxIndex;
    800025f0:	e59c                	sd	a5,8(a1)
    ( pxList->uxNumberOfItems ) = ( UBaseType_t ) ( pxList->uxNumberOfItems + 1U );
    800025f2:	0705                	addi	a4,a4,1
    pxNewListItem->pxPrevious = pxIndex->pxPrevious;
    800025f4:	e994                	sd	a3,16(a1)
    pxIndex->pxPrevious->pxNext = pxNewListItem;
    800025f6:	6b94                	ld	a3,16(a5)
    800025f8:	e68c                	sd	a1,8(a3)
    pxIndex->pxPrevious = pxNewListItem;
    800025fa:	eb8c                	sd	a1,16(a5)
    pxNewListItem->pxContainer = pxList;
    800025fc:	f188                	sd	a0,32(a1)
    ( pxList->uxNumberOfItems ) = ( UBaseType_t ) ( pxList->uxNumberOfItems + 1U );
    800025fe:	e118                	sd	a4,0(a0)

    traceRETURN_vListInsertEnd();
}
    80002600:	8082                	ret

0000000080002602 <vListInsert>:

void vListInsert( List_t * const pxList,
                  ListItem_t * const pxNewListItem )
{
    ListItem_t * pxIterator;
    const TickType_t xValueOfInsertion = pxNewListItem->xItemValue;
    80002602:	6190                	ld	a2,0(a1)
     * new list item should be placed after it.  This ensures that TCBs which are
     * stored in ready lists (all of which have the same xItemValue value) get a
     * share of the CPU.  However, if the xItemValue is the same as the back marker
     * the iteration loop below will not end.  Therefore the value is checked
     * first, and the algorithm slightly modified if necessary. */
    if( xValueOfInsertion == portMAX_DELAY )
    80002604:	577d                	li	a4,-1
        *   5) If the FreeRTOS port supports interrupt nesting then ensure that
        *      the priority of the tick interrupt is at or below
        *      configMAX_SYSCALL_INTERRUPT_PRIORITY.
        **********************************************************************/

        for( pxIterator = ( ListItem_t * ) &( pxList->xListEnd ); pxIterator->pxNext->xItemValue <= xValueOfInsertion; pxIterator = pxIterator->pxNext )
    80002606:	01050793          	addi	a5,a0,16
    if( xValueOfInsertion == portMAX_DELAY )
    8000260a:	02e60063          	beq	a2,a4,8000262a <vListInsert+0x28>
        for( pxIterator = ( ListItem_t * ) &( pxList->xListEnd ); pxIterator->pxNext->xItemValue <= xValueOfInsertion; pxIterator = pxIterator->pxNext )
    8000260e:	86be                	mv	a3,a5
    80002610:	679c                	ld	a5,8(a5)
    80002612:	6398                	ld	a4,0(a5)
    80002614:	fee67de3          	bgeu	a2,a4,8000260e <vListInsert+0xc>
             * IF YOU FIND YOUR CODE STUCK HERE, SEE THE NOTE JUST ABOVE.
             */
        }
    }

    pxNewListItem->pxNext = pxIterator->pxNext;
    80002618:	e59c                	sd	a5,8(a1)
    pxNewListItem->pxNext->pxPrevious = pxNewListItem;
    8000261a:	eb8c                	sd	a1,16(a5)

    /* Remember which list the item is in.  This allows fast removal of the
     * item later. */
    pxNewListItem->pxContainer = pxList;

    ( pxList->uxNumberOfItems ) = ( UBaseType_t ) ( pxList->uxNumberOfItems + 1U );
    8000261c:	611c                	ld	a5,0(a0)
    pxNewListItem->pxPrevious = pxIterator;
    8000261e:	e994                	sd	a3,16(a1)
    pxIterator->pxNext = pxNewListItem;
    80002620:	e68c                	sd	a1,8(a3)
    pxNewListItem->pxContainer = pxList;
    80002622:	f188                	sd	a0,32(a1)
    ( pxList->uxNumberOfItems ) = ( UBaseType_t ) ( pxList->uxNumberOfItems + 1U );
    80002624:	0785                	addi	a5,a5,1
    80002626:	e11c                	sd	a5,0(a0)

    traceRETURN_vListInsert();
}
    80002628:	8082                	ret
        pxIterator = pxList->xListEnd.pxPrevious;
    8000262a:	7114                	ld	a3,32(a0)
    pxNewListItem->pxNext = pxIterator->pxNext;
    8000262c:	669c                	ld	a5,8(a3)
    8000262e:	b7ed                	j	80002618 <vListInsert+0x16>

0000000080002630 <uxListRemove>:

UBaseType_t uxListRemove( ListItem_t * const pxItemToRemove )
{
    /* The list item knows which list it is in.  Obtain the list from the list
     * item. */
    List_t * const pxList = pxItemToRemove->pxContainer;
    80002630:	7118                	ld	a4,32(a0)

    traceENTER_uxListRemove( pxItemToRemove );

    pxItemToRemove->pxNext->pxPrevious = pxItemToRemove->pxPrevious;
    80002632:	6514                	ld	a3,8(a0)
    80002634:	691c                	ld	a5,16(a0)

    /* Only used during decision coverage testing. */
    mtCOVERAGE_TEST_DELAY();

    /* Make sure the index is left pointing to a valid item. */
    if( pxList->pxIndex == pxItemToRemove )
    80002636:	6710                	ld	a2,8(a4)
    pxItemToRemove->pxNext->pxPrevious = pxItemToRemove->pxPrevious;
    80002638:	ea9c                	sd	a5,16(a3)
    pxItemToRemove->pxPrevious->pxNext = pxItemToRemove->pxNext;
    8000263a:	e794                	sd	a3,8(a5)
    if( pxList->pxIndex == pxItemToRemove )
    8000263c:	00a60963          	beq	a2,a0,8000264e <uxListRemove+0x1e>
    {
        mtCOVERAGE_TEST_MARKER();
    }

    pxItemToRemove->pxContainer = NULL;
    ( pxList->uxNumberOfItems ) = ( UBaseType_t ) ( pxList->uxNumberOfItems - 1U );
    80002640:	631c                	ld	a5,0(a4)
    pxItemToRemove->pxContainer = NULL;
    80002642:	02053023          	sd	zero,32(a0)
    ( pxList->uxNumberOfItems ) = ( UBaseType_t ) ( pxList->uxNumberOfItems - 1U );
    80002646:	fff78513          	addi	a0,a5,-1
    8000264a:	e308                	sd	a0,0(a4)

    traceRETURN_uxListRemove( pxList->uxNumberOfItems );

    return pxList->uxNumberOfItems;
}
    8000264c:	8082                	ret
        pxList->pxIndex = pxItemToRemove->pxPrevious;
    8000264e:	e71c                	sd	a5,8(a4)
    ( pxList->uxNumberOfItems ) = ( UBaseType_t ) ( pxList->uxNumberOfItems - 1U );
    80002650:	631c                	ld	a5,0(a4)
    pxItemToRemove->pxContainer = NULL;
    80002652:	02053023          	sd	zero,32(a0)
    ( pxList->uxNumberOfItems ) = ( UBaseType_t ) ( pxList->uxNumberOfItems - 1U );
    80002656:	fff78513          	addi	a0,a5,-1
    8000265a:	e308                	sd	a0,0(a4)
}
    8000265c:	8082                	ret

000000008000265e <prvCopyDataToQueue>:
/*-----------------------------------------------------------*/

static BaseType_t prvCopyDataToQueue( Queue_t * const pxQueue,
                                      const void * pvItemToQueue,
                                      const BaseType_t xPosition )
{
    8000265e:	1101                	addi	sp,sp,-32

    /* This function is called from a critical section. */

    uxMessagesWaiting = pxQueue->uxMessagesWaiting;

    if( pxQueue->uxItemSize == ( UBaseType_t ) 0 )
    80002660:	615c                	ld	a5,128(a0)
{
    80002662:	e426                	sd	s1,8(sp)
    uxMessagesWaiting = pxQueue->uxMessagesWaiting;
    80002664:	7924                	ld	s1,112(a0)
{
    80002666:	e822                	sd	s0,16(sp)
    80002668:	ec06                	sd	ra,24(sp)
    8000266a:	e04a                	sd	s2,0(sp)
    8000266c:	842a                	mv	s0,a0
    if( pxQueue->uxItemSize == ( UBaseType_t ) 0 )
    8000266e:	ef81                	bnez	a5,80002686 <prvCopyDataToQueue+0x28>
    {
        #if ( configUSE_MUTEXES == 1 )
        {
            if( pxQueue->uxQueueType == queueQUEUE_IS_MUTEX )
    80002670:	611c                	ld	a5,0(a0)
        {
            mtCOVERAGE_TEST_MARKER();
        }
    }

    pxQueue->uxMessagesWaiting = ( UBaseType_t ) ( uxMessagesWaiting + ( UBaseType_t ) 1 );
    80002672:	0485                	addi	s1,s1,1
    BaseType_t xReturn = pdFALSE;
    80002674:	4501                	li	a0,0
            if( pxQueue->uxQueueType == queueQUEUE_IS_MUTEX )
    80002676:	c3c1                	beqz	a5,800026f6 <prvCopyDataToQueue+0x98>
    pxQueue->uxMessagesWaiting = ( UBaseType_t ) ( uxMessagesWaiting + ( UBaseType_t ) 1 );
    80002678:	f824                	sd	s1,112(s0)

    return xReturn;
}
    8000267a:	60e2                	ld	ra,24(sp)
    8000267c:	6442                	ld	s0,16(sp)
    8000267e:	64a2                	ld	s1,8(sp)
    80002680:	6902                	ld	s2,0(sp)
    80002682:	6105                	addi	sp,sp,32
    80002684:	8082                	ret
    80002686:	8932                	mv	s2,a2
    else if( xPosition == queueSEND_TO_BACK )
    80002688:	ea0d                	bnez	a2,800026ba <prvCopyDataToQueue+0x5c>
  return __builtin___memcpy_chk (__dest, __src, __len,
    8000268a:	6508                	ld	a0,8(a0)
    8000268c:	863e                	mv	a2,a5
    pxQueue->uxMessagesWaiting = ( UBaseType_t ) ( uxMessagesWaiting + ( UBaseType_t ) 1 );
    8000268e:	0485                	addi	s1,s1,1
    80002690:	00003097          	auipc	ra,0x3
    80002694:	134080e7          	jalr	308(ra) # 800057c4 <memcpy>
        pxQueue->pcWriteTo += pxQueue->uxItemSize;
    80002698:	641c                	ld	a5,8(s0)
    8000269a:	6054                	ld	a3,128(s0)
        if( pxQueue->pcWriteTo >= pxQueue->u.xQueue.pcTail )
    8000269c:	6818                	ld	a4,16(s0)
    BaseType_t xReturn = pdFALSE;
    8000269e:	4501                	li	a0,0
        pxQueue->pcWriteTo += pxQueue->uxItemSize;
    800026a0:	97b6                	add	a5,a5,a3
    800026a2:	e41c                	sd	a5,8(s0)
        if( pxQueue->pcWriteTo >= pxQueue->u.xQueue.pcTail )
    800026a4:	fce7eae3          	bltu	a5,a4,80002678 <prvCopyDataToQueue+0x1a>
            pxQueue->pcWriteTo = pxQueue->pcHead;
    800026a8:	601c                	ld	a5,0(s0)
    pxQueue->uxMessagesWaiting = ( UBaseType_t ) ( uxMessagesWaiting + ( UBaseType_t ) 1 );
    800026aa:	f824                	sd	s1,112(s0)
}
    800026ac:	60e2                	ld	ra,24(sp)
            pxQueue->pcWriteTo = pxQueue->pcHead;
    800026ae:	e41c                	sd	a5,8(s0)
}
    800026b0:	6442                	ld	s0,16(sp)
    800026b2:	64a2                	ld	s1,8(sp)
    800026b4:	6902                	ld	s2,0(sp)
    800026b6:	6105                	addi	sp,sp,32
    800026b8:	8082                	ret
    800026ba:	6d08                	ld	a0,24(a0)
    800026bc:	863e                	mv	a2,a5
    800026be:	00003097          	auipc	ra,0x3
    800026c2:	106080e7          	jalr	262(ra) # 800057c4 <memcpy>
        pxQueue->u.xQueue.pcReadFrom -= pxQueue->uxItemSize;
    800026c6:	6058                	ld	a4,128(s0)
    800026c8:	6c1c                	ld	a5,24(s0)
        if( pxQueue->u.xQueue.pcReadFrom < pxQueue->pcHead )
    800026ca:	6014                	ld	a3,0(s0)
        pxQueue->u.xQueue.pcReadFrom -= pxQueue->uxItemSize;
    800026cc:	40e00633          	neg	a2,a4
    800026d0:	8f99                	sub	a5,a5,a4
    800026d2:	ec1c                	sd	a5,24(s0)
        if( pxQueue->u.xQueue.pcReadFrom < pxQueue->pcHead )
    800026d4:	00d7f563          	bgeu	a5,a3,800026de <prvCopyDataToQueue+0x80>
            pxQueue->u.xQueue.pcReadFrom = ( pxQueue->u.xQueue.pcTail - pxQueue->uxItemSize );
    800026d8:	681c                	ld	a5,16(s0)
    800026da:	97b2                	add	a5,a5,a2
    800026dc:	ec1c                	sd	a5,24(s0)
        if( xPosition == queueOVERWRITE )
    800026de:	4789                	li	a5,2
    800026e0:	02f90363          	beq	s2,a5,80002706 <prvCopyDataToQueue+0xa8>
    pxQueue->uxMessagesWaiting = ( UBaseType_t ) ( uxMessagesWaiting + ( UBaseType_t ) 1 );
    800026e4:	0485                	addi	s1,s1,1
    800026e6:	f824                	sd	s1,112(s0)
}
    800026e8:	60e2                	ld	ra,24(sp)
    800026ea:	6442                	ld	s0,16(sp)
    800026ec:	64a2                	ld	s1,8(sp)
    800026ee:	6902                	ld	s2,0(sp)
    BaseType_t xReturn = pdFALSE;
    800026f0:	4501                	li	a0,0
}
    800026f2:	6105                	addi	sp,sp,32
    800026f4:	8082                	ret
                xReturn = xTaskPriorityDisinherit( pxQueue->u.xSemaphore.xMutexHolder );
    800026f6:	6808                	ld	a0,16(s0)
    800026f8:	fffff097          	auipc	ra,0xfffff
    800026fc:	60a080e7          	jalr	1546(ra) # 80001d02 <xTaskPriorityDisinherit>
